
unnamed-os.elf:     file format elf64-x86-64


Disassembly of section .text:

ffffffff80000000 <itoa.part.0>:
ffffffff80000000:	48 89 f8             	mov    %rdi,%rax
ffffffff80000003:	4c 63 c2             	movslq %edx,%r8
ffffffff80000006:	48 89 f7             	mov    %rsi,%rdi
ffffffff80000009:	0f 1f 80 00 00 00 00 	nopl   0x0(%rax)
ffffffff80000010:	48 99                	cqto   
ffffffff80000012:	49 89 c1             	mov    %rax,%r9
ffffffff80000015:	48 89 f9             	mov    %rdi,%rcx
ffffffff80000018:	48 83 c7 01          	add    $0x1,%rdi
ffffffff8000001c:	49 f7 f8             	idiv   %r8
ffffffff8000001f:	0f b6 92 f3 26 00 80 	movzbl -0x7fffd90d(%rdx),%edx
ffffffff80000026:	88 57 ff             	mov    %dl,-0x1(%rdi)
ffffffff80000029:	48 85 c0             	test   %rax,%rax
ffffffff8000002c:	75 e2                	jne    ffffffff80000010 <itoa.part.0+0x10>
ffffffff8000002e:	4d 85 c9             	test   %r9,%r9
ffffffff80000031:	79 0d                	jns    ffffffff80000040 <itoa.part.0+0x40>
ffffffff80000033:	48 8d 41 02          	lea    0x2(%rcx),%rax
ffffffff80000037:	c6 07 2d             	movb   $0x2d,(%rdi)
ffffffff8000003a:	48 89 f9             	mov    %rdi,%rcx
ffffffff8000003d:	48 89 c7             	mov    %rax,%rdi
ffffffff80000040:	c6 07 00             	movb   $0x0,(%rdi)
ffffffff80000043:	48 39 f1             	cmp    %rsi,%rcx
ffffffff80000046:	76 21                	jbe    ffffffff80000069 <itoa.part.0+0x69>
ffffffff80000048:	0f 1f 84 00 00 00 00 	nopl   0x0(%rax,%rax,1)
ffffffff8000004f:	00 
ffffffff80000050:	0f b6 01             	movzbl (%rcx),%eax
ffffffff80000053:	0f b6 16             	movzbl (%rsi),%edx
ffffffff80000056:	48 83 e9 01          	sub    $0x1,%rcx
ffffffff8000005a:	48 83 c6 01          	add    $0x1,%rsi
ffffffff8000005e:	88 51 01             	mov    %dl,0x1(%rcx)
ffffffff80000061:	88 46 ff             	mov    %al,-0x1(%rsi)
ffffffff80000064:	48 39 f1             	cmp    %rsi,%rcx
ffffffff80000067:	77 e7                	ja     ffffffff80000050 <itoa.part.0+0x50>
ffffffff80000069:	c3                   	ret    
ffffffff8000006a:	66 0f 1f 44 00 00    	nopw   0x0(%rax,%rax,1)

ffffffff80000070 <init_terminal>:
ffffffff80000070:	f3 0f 1e fa          	endbr64 
ffffffff80000074:	48 8b 05 cd 39 00 00 	mov    0x39cd(%rip),%rax        # ffffffff80003a48 <terminal_request+0x28>
ffffffff8000007b:	48 85 c0             	test   %rax,%rax
ffffffff8000007e:	74 15                	je     ffffffff80000095 <init_terminal+0x25>
ffffffff80000080:	48 8b 05 c1 39 00 00 	mov    0x39c1(%rip),%rax        # ffffffff80003a48 <terminal_request+0x28>
ffffffff80000087:	48 8b 40 10          	mov    0x10(%rax),%rax
ffffffff8000008b:	48 8b 00             	mov    (%rax),%rax
ffffffff8000008e:	48 89 05 6b 3f 00 00 	mov    %rax,0x3f6b(%rip)        # ffffffff80004000 <terminal>
ffffffff80000095:	c3                   	ret    
ffffffff80000096:	66 2e 0f 1f 84 00 00 	cs nopw 0x0(%rax,%rax,1)
ffffffff8000009d:	00 00 00 

ffffffff800000a0 <print>:
ffffffff800000a0:	f3 0f 1e fa          	endbr64 
ffffffff800000a4:	55                   	push   %rbp
ffffffff800000a5:	48 89 fd             	mov    %rdi,%rbp
ffffffff800000a8:	53                   	push   %rbx
ffffffff800000a9:	48 83 ec 08          	sub    $0x8,%rsp
ffffffff800000ad:	48 8b 05 94 39 00 00 	mov    0x3994(%rip),%rax        # ffffffff80003a48 <terminal_request+0x28>
ffffffff800000b4:	48 8b 58 18          	mov    0x18(%rax),%rbx
ffffffff800000b8:	e8 d3 12 00 00       	call   ffffffff80001390 <strlen>
ffffffff800000bd:	48 8b 3d 3c 3f 00 00 	mov    0x3f3c(%rip),%rdi        # ffffffff80004000 <terminal>
ffffffff800000c4:	48 83 c4 08          	add    $0x8,%rsp
ffffffff800000c8:	48 89 ee             	mov    %rbp,%rsi
ffffffff800000cb:	48 89 c2             	mov    %rax,%rdx
ffffffff800000ce:	48 89 d8             	mov    %rbx,%rax
ffffffff800000d1:	5b                   	pop    %rbx
ffffffff800000d2:	5d                   	pop    %rbp
ffffffff800000d3:	ff e0                	jmp    *%rax
ffffffff800000d5:	66 66 2e 0f 1f 84 00 	data16 cs nopw 0x0(%rax,%rax,1)
ffffffff800000dc:	00 00 00 00 

ffffffff800000e0 <printi>:
ffffffff800000e0:	f3 0f 1e fa          	endbr64 
ffffffff800000e4:	55                   	push   %rbp
ffffffff800000e5:	48 83 c6 0f          	add    $0xf,%rsi
ffffffff800000e9:	48 89 f0             	mov    %rsi,%rax
ffffffff800000ec:	48 81 e6 00 f0 ff ff 	and    $0xfffffffffffff000,%rsi
ffffffff800000f3:	48 83 e0 f0          	and    $0xfffffffffffffff0,%rax
ffffffff800000f7:	48 89 e5             	mov    %rsp,%rbp
ffffffff800000fa:	41 54                	push   %r12
ffffffff800000fc:	53                   	push   %rbx
ffffffff800000fd:	48 89 e1             	mov    %rsp,%rcx
ffffffff80000100:	48 29 f1             	sub    %rsi,%rcx
ffffffff80000103:	48 39 cc             	cmp    %rcx,%rsp
ffffffff80000106:	74 15                	je     ffffffff8000011d <printi+0x3d>
ffffffff80000108:	48 81 ec 00 10 00 00 	sub    $0x1000,%rsp
ffffffff8000010f:	48 83 8c 24 f8 0f 00 	orq    $0x0,0xff8(%rsp)
ffffffff80000116:	00 00 
ffffffff80000118:	48 39 cc             	cmp    %rcx,%rsp
ffffffff8000011b:	75 eb                	jne    ffffffff80000108 <printi+0x28>
ffffffff8000011d:	25 ff 0f 00 00       	and    $0xfff,%eax
ffffffff80000122:	48 29 c4             	sub    %rax,%rsp
ffffffff80000125:	48 85 c0             	test   %rax,%rax
ffffffff80000128:	75 56                	jne    ffffffff80000180 <printi+0xa0>
ffffffff8000012a:	0f b6 d2             	movzbl %dl,%edx
ffffffff8000012d:	49 89 e4             	mov    %rsp,%r12
ffffffff80000130:	8d 42 fe             	lea    -0x2(%rdx),%eax
ffffffff80000133:	83 f8 22             	cmp    $0x22,%eax
ffffffff80000136:	77 38                	ja     ffffffff80000170 <printi+0x90>
ffffffff80000138:	48 89 e6             	mov    %rsp,%rsi
ffffffff8000013b:	e8 c0 fe ff ff       	call   ffffffff80000000 <itoa.part.0>
ffffffff80000140:	48 8b 05 01 39 00 00 	mov    0x3901(%rip),%rax        # ffffffff80003a48 <terminal_request+0x28>
ffffffff80000147:	4c 89 e7             	mov    %r12,%rdi
ffffffff8000014a:	48 8b 58 18          	mov    0x18(%rax),%rbx
ffffffff8000014e:	e8 3d 12 00 00       	call   ffffffff80001390 <strlen>
ffffffff80000153:	4c 89 e6             	mov    %r12,%rsi
ffffffff80000156:	48 8b 3d a3 3e 00 00 	mov    0x3ea3(%rip),%rdi        # ffffffff80004000 <terminal>
ffffffff8000015d:	48 89 c2             	mov    %rax,%rdx
ffffffff80000160:	ff d3                	call   *%rbx
ffffffff80000162:	48 8d 65 f0          	lea    -0x10(%rbp),%rsp
ffffffff80000166:	5b                   	pop    %rbx
ffffffff80000167:	41 5c                	pop    %r12
ffffffff80000169:	5d                   	pop    %rbp
ffffffff8000016a:	c3                   	ret    
ffffffff8000016b:	0f 1f 44 00 00       	nopl   0x0(%rax,%rax,1)
ffffffff80000170:	c6 04 24 00          	movb   $0x0,(%rsp)
ffffffff80000174:	eb ca                	jmp    ffffffff80000140 <printi+0x60>
ffffffff80000176:	66 2e 0f 1f 84 00 00 	cs nopw 0x0(%rax,%rax,1)
ffffffff8000017d:	00 00 00 
ffffffff80000180:	48 83 4c 04 f8 00    	orq    $0x0,-0x8(%rsp,%rax,1)
ffffffff80000186:	0f b6 d2             	movzbl %dl,%edx
ffffffff80000189:	49 89 e4             	mov    %rsp,%r12
ffffffff8000018c:	8d 42 fe             	lea    -0x2(%rdx),%eax
ffffffff8000018f:	83 f8 22             	cmp    $0x22,%eax
ffffffff80000192:	76 a4                	jbe    ffffffff80000138 <printi+0x58>
ffffffff80000194:	eb da                	jmp    ffffffff80000170 <printi+0x90>
ffffffff80000196:	66 2e 0f 1f 84 00 00 	cs nopw 0x0(%rax,%rax,1)
ffffffff8000019d:	00 00 00 

ffffffff800001a0 <printui>:
ffffffff800001a0:	f3 0f 1e fa          	endbr64 
ffffffff800001a4:	55                   	push   %rbp
ffffffff800001a5:	48 83 c6 0f          	add    $0xf,%rsi
ffffffff800001a9:	48 89 f8             	mov    %rdi,%rax
ffffffff800001ac:	48 89 f1             	mov    %rsi,%rcx
ffffffff800001af:	48 81 e6 00 f0 ff ff 	and    $0xfffffffffffff000,%rsi
ffffffff800001b6:	48 83 e1 f0          	and    $0xfffffffffffffff0,%rcx
ffffffff800001ba:	48 89 e5             	mov    %rsp,%rbp
ffffffff800001bd:	41 54                	push   %r12
ffffffff800001bf:	53                   	push   %rbx
ffffffff800001c0:	48 89 e7             	mov    %rsp,%rdi
ffffffff800001c3:	48 29 f7             	sub    %rsi,%rdi
ffffffff800001c6:	48 39 fc             	cmp    %rdi,%rsp
ffffffff800001c9:	74 15                	je     ffffffff800001e0 <printui+0x40>
ffffffff800001cb:	48 81 ec 00 10 00 00 	sub    $0x1000,%rsp
ffffffff800001d2:	48 83 8c 24 f8 0f 00 	orq    $0x0,0xff8(%rsp)
ffffffff800001d9:	00 00 
ffffffff800001db:	48 39 fc             	cmp    %rdi,%rsp
ffffffff800001de:	75 eb                	jne    ffffffff800001cb <printui+0x2b>
ffffffff800001e0:	81 e1 ff 0f 00 00    	and    $0xfff,%ecx
ffffffff800001e6:	48 29 cc             	sub    %rcx,%rsp
ffffffff800001e9:	48 85 c9             	test   %rcx,%rcx
ffffffff800001ec:	0f 85 9e 00 00 00    	jne    ffffffff80000290 <printui+0xf0>
ffffffff800001f2:	0f b6 ca             	movzbl %dl,%ecx
ffffffff800001f5:	49 89 e4             	mov    %rsp,%r12
ffffffff800001f8:	0f b6 f2             	movzbl %dl,%esi
ffffffff800001fb:	48 89 e7             	mov    %rsp,%rdi
ffffffff800001fe:	83 e9 02             	sub    $0x2,%ecx
ffffffff80000201:	83 f9 22             	cmp    $0x22,%ecx
ffffffff80000204:	0f 87 7e 00 00 00    	ja     ffffffff80000288 <printui+0xe8>
ffffffff8000020a:	66 0f 1f 44 00 00    	nopw   0x0(%rax,%rax,1)
ffffffff80000210:	31 d2                	xor    %edx,%edx
ffffffff80000212:	49 89 c0             	mov    %rax,%r8
ffffffff80000215:	48 89 f9             	mov    %rdi,%rcx
ffffffff80000218:	48 f7 f6             	div    %rsi
ffffffff8000021b:	48 8d 7f 01          	lea    0x1(%rdi),%rdi
ffffffff8000021f:	0f b6 92 f3 26 00 80 	movzbl -0x7fffd90d(%rdx),%edx
ffffffff80000226:	88 57 ff             	mov    %dl,-0x1(%rdi)
ffffffff80000229:	49 39 f0             	cmp    %rsi,%r8
ffffffff8000022c:	73 e2                	jae    ffffffff80000210 <printui+0x70>
ffffffff8000022e:	c6 07 00             	movb   $0x0,(%rdi)
ffffffff80000231:	49 39 cc             	cmp    %rcx,%r12
ffffffff80000234:	73 24                	jae    ffffffff8000025a <printui+0xba>
ffffffff80000236:	4c 89 e0             	mov    %r12,%rax
ffffffff80000239:	eb 08                	jmp    ffffffff80000243 <printui+0xa3>
ffffffff8000023b:	0f 1f 44 00 00       	nopl   0x0(%rax,%rax,1)
ffffffff80000240:	0f b6 11             	movzbl (%rcx),%edx
ffffffff80000243:	0f b6 30             	movzbl (%rax),%esi
ffffffff80000246:	48 83 e9 01          	sub    $0x1,%rcx
ffffffff8000024a:	48 83 c0 01          	add    $0x1,%rax
ffffffff8000024e:	40 88 71 01          	mov    %sil,0x1(%rcx)
ffffffff80000252:	88 50 ff             	mov    %dl,-0x1(%rax)
ffffffff80000255:	48 39 c1             	cmp    %rax,%rcx
ffffffff80000258:	77 e6                	ja     ffffffff80000240 <printui+0xa0>
ffffffff8000025a:	48 8b 05 e7 37 00 00 	mov    0x37e7(%rip),%rax        # ffffffff80003a48 <terminal_request+0x28>
ffffffff80000261:	4c 89 e7             	mov    %r12,%rdi
ffffffff80000264:	48 8b 58 18          	mov    0x18(%rax),%rbx
ffffffff80000268:	e8 23 11 00 00       	call   ffffffff80001390 <strlen>
ffffffff8000026d:	4c 89 e6             	mov    %r12,%rsi
ffffffff80000270:	48 8b 3d 89 3d 00 00 	mov    0x3d89(%rip),%rdi        # ffffffff80004000 <terminal>
ffffffff80000277:	48 89 c2             	mov    %rax,%rdx
ffffffff8000027a:	ff d3                	call   *%rbx
ffffffff8000027c:	48 8d 65 f0          	lea    -0x10(%rbp),%rsp
ffffffff80000280:	5b                   	pop    %rbx
ffffffff80000281:	41 5c                	pop    %r12
ffffffff80000283:	5d                   	pop    %rbp
ffffffff80000284:	c3                   	ret    
ffffffff80000285:	0f 1f 00             	nopl   (%rax)
ffffffff80000288:	c6 04 24 00          	movb   $0x0,(%rsp)
ffffffff8000028c:	eb cc                	jmp    ffffffff8000025a <printui+0xba>
ffffffff8000028e:	66 90                	xchg   %ax,%ax
ffffffff80000290:	48 83 4c 0c f8 00    	orq    $0x0,-0x8(%rsp,%rcx,1)
ffffffff80000296:	e9 57 ff ff ff       	jmp    ffffffff800001f2 <printui+0x52>
ffffffff8000029b:	0f 1f 44 00 00       	nopl   0x0(%rax,%rax,1)

ffffffff800002a0 <itoa>:
ffffffff800002a0:	f3 0f 1e fa          	endbr64 
ffffffff800002a4:	8d 42 fe             	lea    -0x2(%rdx),%eax
ffffffff800002a7:	49 89 f2             	mov    %rsi,%r10
ffffffff800002aa:	83 f8 22             	cmp    $0x22,%eax
ffffffff800002ad:	77 11                	ja     ffffffff800002c0 <itoa+0x20>
ffffffff800002af:	e8 4c fd ff ff       	call   ffffffff80000000 <itoa.part.0>
ffffffff800002b4:	4c 89 d0             	mov    %r10,%rax
ffffffff800002b7:	c3                   	ret    
ffffffff800002b8:	0f 1f 84 00 00 00 00 	nopl   0x0(%rax,%rax,1)
ffffffff800002bf:	00 
ffffffff800002c0:	c6 06 00             	movb   $0x0,(%rsi)
ffffffff800002c3:	4c 89 d0             	mov    %r10,%rax
ffffffff800002c6:	c3                   	ret    
ffffffff800002c7:	66 0f 1f 84 00 00 00 	nopw   0x0(%rax,%rax,1)
ffffffff800002ce:	00 00 

ffffffff800002d0 <uitoa>:
ffffffff800002d0:	f3 0f 1e fa          	endbr64 
ffffffff800002d4:	8d 4a fe             	lea    -0x2(%rdx),%ecx
ffffffff800002d7:	48 89 f8             	mov    %rdi,%rax
ffffffff800002da:	49 89 f2             	mov    %rsi,%r10
ffffffff800002dd:	48 63 fa             	movslq %edx,%rdi
ffffffff800002e0:	49 89 f0             	mov    %rsi,%r8
ffffffff800002e3:	83 f9 22             	cmp    $0x22,%ecx
ffffffff800002e6:	77 58                	ja     ffffffff80000340 <uitoa+0x70>
ffffffff800002e8:	0f 1f 84 00 00 00 00 	nopl   0x0(%rax,%rax,1)
ffffffff800002ef:	00 
ffffffff800002f0:	31 d2                	xor    %edx,%edx
ffffffff800002f2:	49 89 c1             	mov    %rax,%r9
ffffffff800002f5:	4c 89 c1             	mov    %r8,%rcx
ffffffff800002f8:	48 f7 f7             	div    %rdi
ffffffff800002fb:	4d 8d 40 01          	lea    0x1(%r8),%r8
ffffffff800002ff:	0f b6 92 f3 26 00 80 	movzbl -0x7fffd90d(%rdx),%edx
ffffffff80000306:	41 88 50 ff          	mov    %dl,-0x1(%r8)
ffffffff8000030a:	49 39 f9             	cmp    %rdi,%r9
ffffffff8000030d:	73 e1                	jae    ffffffff800002f0 <uitoa+0x20>
ffffffff8000030f:	41 c6 00 00          	movb   $0x0,(%r8)
ffffffff80000313:	49 39 ca             	cmp    %rcx,%r10
ffffffff80000316:	73 22                	jae    ffffffff8000033a <uitoa+0x6a>
ffffffff80000318:	4c 89 d0             	mov    %r10,%rax
ffffffff8000031b:	eb 06                	jmp    ffffffff80000323 <uitoa+0x53>
ffffffff8000031d:	0f 1f 00             	nopl   (%rax)
ffffffff80000320:	0f b6 11             	movzbl (%rcx),%edx
ffffffff80000323:	0f b6 38             	movzbl (%rax),%edi
ffffffff80000326:	48 83 e9 01          	sub    $0x1,%rcx
ffffffff8000032a:	48 83 c0 01          	add    $0x1,%rax
ffffffff8000032e:	40 88 79 01          	mov    %dil,0x1(%rcx)
ffffffff80000332:	88 50 ff             	mov    %dl,-0x1(%rax)
ffffffff80000335:	48 39 c1             	cmp    %rax,%rcx
ffffffff80000338:	77 e6                	ja     ffffffff80000320 <uitoa+0x50>
ffffffff8000033a:	4c 89 d0             	mov    %r10,%rax
ffffffff8000033d:	c3                   	ret    
ffffffff8000033e:	66 90                	xchg   %ax,%ax
ffffffff80000340:	c6 06 00             	movb   $0x0,(%rsi)
ffffffff80000343:	4c 89 d0             	mov    %r10,%rax
ffffffff80000346:	c3                   	ret    
ffffffff80000347:	66 0f 1f 84 00 00 00 	nopw   0x0(%rax,%rax,1)
ffffffff8000034e:	00 00 

ffffffff80000350 <init_gdt>:
ffffffff80000350:	f3 0f 1e fa          	endbr64 
ffffffff80000354:	48 c7 05 cb 3c 00 00 	movq   $0xffffffff80004040,0x3ccb(%rip)        # ffffffff8000402a <gdtr+0x2>
ffffffff8000035b:	40 40 00 80 
ffffffff8000035f:	b8 ff ff ff ff       	mov    $0xffffffff,%eax
ffffffff80000364:	66 89 05 bd 3c 00 00 	mov    %ax,0x3cbd(%rip)        # ffffffff80004028 <gdtr>
ffffffff8000036b:	0f b7 05 ae 3c 00 00 	movzwl 0x3cae(%rip),%eax        # ffffffff80004020 <gindex>
ffffffff80000372:	66 3d ff 1f          	cmp    $0x1fff,%ax
ffffffff80000376:	0f 87 5d 01 00 00    	ja     ffffffff800004d9 <init_gdt+0x189>
ffffffff8000037c:	0f b7 d0             	movzwl %ax,%edx
ffffffff8000037f:	48 c7 04 d5 40 40 00 	movq   $0x0,-0x7fffbfc0(,%rdx,8)
ffffffff80000386:	80 00 00 00 00 
ffffffff8000038b:	8d 50 01             	lea    0x1(%rax),%edx
ffffffff8000038e:	66 89 15 8b 3c 00 00 	mov    %dx,0x3c8b(%rip)        # ffffffff80004020 <gindex>
ffffffff80000395:	66 81 fa 00 20       	cmp    $0x2000,%dx
ffffffff8000039a:	0f 84 39 01 00 00    	je     ffffffff800004d9 <init_gdt+0x189>
ffffffff800003a0:	48 b9 ff ff 00 00 00 	movabs $0x9a000000ffff,%rcx
ffffffff800003a7:	9a 00 00 
ffffffff800003aa:	0f b7 d2             	movzwl %dx,%edx
ffffffff800003ad:	48 89 0c d5 40 40 00 	mov    %rcx,-0x7fffbfc0(,%rdx,8)
ffffffff800003b4:	80 
ffffffff800003b5:	8d 50 02             	lea    0x2(%rax),%edx
ffffffff800003b8:	66 89 15 61 3c 00 00 	mov    %dx,0x3c61(%rip)        # ffffffff80004020 <gindex>
ffffffff800003bf:	66 81 fa 00 20       	cmp    $0x2000,%dx
ffffffff800003c4:	0f 84 0f 01 00 00    	je     ffffffff800004d9 <init_gdt+0x189>
ffffffff800003ca:	48 be ff ff 00 00 00 	movabs $0x92000000ffff,%rsi
ffffffff800003d1:	92 00 00 
ffffffff800003d4:	0f b7 d2             	movzwl %dx,%edx
ffffffff800003d7:	48 89 34 d5 40 40 00 	mov    %rsi,-0x7fffbfc0(,%rdx,8)
ffffffff800003de:	80 
ffffffff800003df:	8d 50 03             	lea    0x3(%rax),%edx
ffffffff800003e2:	66 89 15 37 3c 00 00 	mov    %dx,0x3c37(%rip)        # ffffffff80004020 <gindex>
ffffffff800003e9:	66 81 fa 00 20       	cmp    $0x2000,%dx
ffffffff800003ee:	0f 84 e5 00 00 00    	je     ffffffff800004d9 <init_gdt+0x189>
ffffffff800003f4:	48 bf ff ff 00 00 00 	movabs $0xcf9a000000ffff,%rdi
ffffffff800003fb:	9a cf 00 
ffffffff800003fe:	0f b7 d2             	movzwl %dx,%edx
ffffffff80000401:	48 89 3c d5 40 40 00 	mov    %rdi,-0x7fffbfc0(,%rdx,8)
ffffffff80000408:	80 
ffffffff80000409:	8d 50 04             	lea    0x4(%rax),%edx
ffffffff8000040c:	66 89 15 0d 3c 00 00 	mov    %dx,0x3c0d(%rip)        # ffffffff80004020 <gindex>
ffffffff80000413:	66 81 fa 00 20       	cmp    $0x2000,%dx
ffffffff80000418:	0f 84 bb 00 00 00    	je     ffffffff800004d9 <init_gdt+0x189>
ffffffff8000041e:	48 b9 ff ff 00 00 00 	movabs $0xcf92000000ffff,%rcx
ffffffff80000425:	92 cf 00 
ffffffff80000428:	0f b7 d2             	movzwl %dx,%edx
ffffffff8000042b:	48 89 0c d5 40 40 00 	mov    %rcx,-0x7fffbfc0(,%rdx,8)
ffffffff80000432:	80 
ffffffff80000433:	8d 50 05             	lea    0x5(%rax),%edx
ffffffff80000436:	66 89 15 e3 3b 00 00 	mov    %dx,0x3be3(%rip)        # ffffffff80004020 <gindex>
ffffffff8000043d:	66 81 fa 00 20       	cmp    $0x2000,%dx
ffffffff80000442:	0f 84 91 00 00 00    	je     ffffffff800004d9 <init_gdt+0x189>
ffffffff80000448:	48 be 00 00 00 00 00 	movabs $0x209a0000000000,%rsi
ffffffff8000044f:	9a 20 00 
ffffffff80000452:	0f b7 d2             	movzwl %dx,%edx
ffffffff80000455:	48 89 34 d5 40 40 00 	mov    %rsi,-0x7fffbfc0(,%rdx,8)
ffffffff8000045c:	80 
ffffffff8000045d:	8d 50 06             	lea    0x6(%rax),%edx
ffffffff80000460:	66 89 15 b9 3b 00 00 	mov    %dx,0x3bb9(%rip)        # ffffffff80004020 <gindex>
ffffffff80000467:	66 81 fa 00 20       	cmp    $0x2000,%dx
ffffffff8000046c:	74 6b                	je     ffffffff800004d9 <init_gdt+0x189>
ffffffff8000046e:	48 bf 00 00 00 00 00 	movabs $0x920000000000,%rdi
ffffffff80000475:	92 00 00 
ffffffff80000478:	0f b7 d2             	movzwl %dx,%edx
ffffffff8000047b:	48 89 3c d5 40 40 00 	mov    %rdi,-0x7fffbfc0(,%rdx,8)
ffffffff80000482:	80 
ffffffff80000483:	8d 50 07             	lea    0x7(%rax),%edx
ffffffff80000486:	66 89 15 93 3b 00 00 	mov    %dx,0x3b93(%rip)        # ffffffff80004020 <gindex>
ffffffff8000048d:	66 81 fa 00 20       	cmp    $0x2000,%dx
ffffffff80000492:	74 45                	je     ffffffff800004d9 <init_gdt+0x189>
ffffffff80000494:	48 b9 00 00 00 00 00 	movabs $0x20fa0000000000,%rcx
ffffffff8000049b:	fa 20 00 
ffffffff8000049e:	0f b7 d2             	movzwl %dx,%edx
ffffffff800004a1:	48 89 0c d5 40 40 00 	mov    %rcx,-0x7fffbfc0(,%rdx,8)
ffffffff800004a8:	80 
ffffffff800004a9:	8d 50 08             	lea    0x8(%rax),%edx
ffffffff800004ac:	66 89 15 6d 3b 00 00 	mov    %dx,0x3b6d(%rip)        # ffffffff80004020 <gindex>
ffffffff800004b3:	66 81 fa 00 20       	cmp    $0x2000,%dx
ffffffff800004b8:	74 1f                	je     ffffffff800004d9 <init_gdt+0x189>
ffffffff800004ba:	48 be 00 00 00 00 00 	movabs $0xf20000000000,%rsi
ffffffff800004c1:	f2 00 00 
ffffffff800004c4:	0f b7 d2             	movzwl %dx,%edx
ffffffff800004c7:	83 c0 09             	add    $0x9,%eax
ffffffff800004ca:	48 89 34 d5 40 40 00 	mov    %rsi,-0x7fffbfc0(,%rdx,8)
ffffffff800004d1:	80 
ffffffff800004d2:	66 89 05 47 3b 00 00 	mov    %ax,0x3b47(%rip)        # ffffffff80004020 <gindex>
ffffffff800004d9:	ba 30 00 00 00       	mov    $0x30,%edx
ffffffff800004de:	be 28 00 00 00       	mov    $0x28,%esi
ffffffff800004e3:	48 c7 c7 28 40 00 80 	mov    $0xffffffff80004028,%rdi
ffffffff800004ea:	e9 01 0f 00 00       	jmp    ffffffff800013f0 <gdt_reload>
ffffffff800004ef:	90                   	nop

ffffffff800004f0 <gdt_add_descriptor>:
ffffffff800004f0:	f3 0f 1e fa          	endbr64 
ffffffff800004f4:	0f b7 05 25 3b 00 00 	movzwl 0x3b25(%rip),%eax        # ffffffff80004020 <gindex>
ffffffff800004fb:	66 3d ff 1f          	cmp    $0x1fff,%ax
ffffffff800004ff:	77 53                	ja     ffffffff80000554 <gdt_add_descriptor+0x64>
ffffffff80000501:	44 0f b7 c0          	movzwl %ax,%r8d
ffffffff80000505:	49 89 f9             	mov    %rdi,%r9
ffffffff80000508:	83 c0 01             	add    $0x1,%eax
ffffffff8000050b:	66 42 89 34 c5 40 40 	mov    %si,-0x7fffbfc0(,%r8,8)
ffffffff80000512:	00 80 
ffffffff80000514:	c1 ee 10             	shr    $0x10,%esi
ffffffff80000517:	49 c1 e9 10          	shr    $0x10,%r9
ffffffff8000051b:	83 e6 0f             	and    $0xf,%esi
ffffffff8000051e:	46 88 0c c5 44 40 00 	mov    %r9b,-0x7fffbfbc(,%r8,8)
ffffffff80000525:	80 
ffffffff80000526:	66 42 89 3c c5 42 40 	mov    %di,-0x7fffbfbe(,%r8,8)
ffffffff8000052d:	00 80 
ffffffff8000052f:	09 ce                	or     %ecx,%esi
ffffffff80000531:	48 c1 ef 18          	shr    $0x18,%rdi
ffffffff80000535:	42 88 3c c5 47 40 00 	mov    %dil,-0x7fffbfb9(,%r8,8)
ffffffff8000053c:	80 
ffffffff8000053d:	42 88 14 c5 45 40 00 	mov    %dl,-0x7fffbfbb(,%r8,8)
ffffffff80000544:	80 
ffffffff80000545:	42 88 34 c5 46 40 00 	mov    %sil,-0x7fffbfba(,%r8,8)
ffffffff8000054c:	80 
ffffffff8000054d:	66 89 05 cc 3a 00 00 	mov    %ax,0x3acc(%rip)        # ffffffff80004020 <gindex>
ffffffff80000554:	c3                   	ret    
ffffffff80000555:	66 66 2e 0f 1f 84 00 	data16 cs nopw 0x0(%rax,%rax,1)
ffffffff8000055c:	00 00 00 00 

ffffffff80000560 <gdt_install_tss>:
ffffffff80000560:	f3 0f 1e fa          	endbr64 
ffffffff80000564:	0f b7 15 b5 3a 00 00 	movzwl 0x3ab5(%rip),%edx        # ffffffff80004020 <gindex>
ffffffff8000056b:	31 c0                	xor    %eax,%eax
ffffffff8000056d:	66 81 fa ff 1f       	cmp    $0x1fff,%dx
ffffffff80000572:	77 5a                	ja     ffffffff800005ce <gdt_install_tss+0x6e>
ffffffff80000574:	0f b7 ca             	movzwl %dx,%ecx
ffffffff80000577:	be 70 00 00 00       	mov    $0x70,%esi
ffffffff8000057c:	41 b8 89 00 00 00    	mov    $0x89,%r8d
ffffffff80000582:	48 8d 04 cd 40 40 00 	lea    -0x7fffbfc0(,%rcx,8),%rax
ffffffff80000589:	80 
ffffffff8000058a:	66 89 34 cd 40 40 00 	mov    %si,-0x7fffbfc0(,%rcx,8)
ffffffff80000591:	80 
ffffffff80000592:	48 89 f9             	mov    %rdi,%rcx
ffffffff80000595:	48 c1 e9 10          	shr    $0x10,%rcx
ffffffff80000599:	66 89 78 02          	mov    %di,0x2(%rax)
ffffffff8000059d:	88 48 04             	mov    %cl,0x4(%rax)
ffffffff800005a0:	48 89 f9             	mov    %rdi,%rcx
ffffffff800005a3:	48 c1 ef 20          	shr    $0x20,%rdi
ffffffff800005a7:	48 c1 e9 18          	shr    $0x18,%rcx
ffffffff800005ab:	66 44 89 40 05       	mov    %r8w,0x5(%rax)
ffffffff800005b0:	88 48 07             	mov    %cl,0x7(%rax)
ffffffff800005b3:	89 78 08             	mov    %edi,0x8(%rax)
ffffffff800005b6:	c7 40 0c 00 00 00 00 	movl   $0x0,0xc(%rax)
ffffffff800005bd:	8d 42 02             	lea    0x2(%rdx),%eax
ffffffff800005c0:	66 89 05 59 3a 00 00 	mov    %ax,0x3a59(%rip)        # ffffffff80004020 <gindex>
ffffffff800005c7:	8d 04 d5 00 00 00 00 	lea    0x0(,%rdx,8),%eax
ffffffff800005ce:	c3                   	ret    
ffffffff800005cf:	90                   	nop

ffffffff800005d0 <idt_set_descriptor>:
ffffffff800005d0:	f3 0f 1e fa          	endbr64 
ffffffff800005d4:	40 0f b6 ff          	movzbl %dil,%edi
ffffffff800005d8:	b8 28 00 00 00       	mov    $0x28,%eax
ffffffff800005dd:	48 c1 e7 04          	shl    $0x4,%rdi
ffffffff800005e1:	88 97 05 60 01 80    	mov    %dl,-0x7ffe9ffb(%rdi)
ffffffff800005e7:	48 89 f2             	mov    %rsi,%rdx
ffffffff800005ea:	66 89 b7 00 60 01 80 	mov    %si,-0x7ffea000(%rdi)
ffffffff800005f1:	48 c1 ea 10          	shr    $0x10,%rdx
ffffffff800005f5:	48 c1 ee 20          	shr    $0x20,%rsi
ffffffff800005f9:	66 89 87 02 60 01 80 	mov    %ax,-0x7ffe9ffe(%rdi)
ffffffff80000600:	88 8f 04 60 01 80    	mov    %cl,-0x7ffe9ffc(%rdi)
ffffffff80000606:	66 89 97 06 60 01 80 	mov    %dx,-0x7ffe9ffa(%rdi)
ffffffff8000060d:	89 b7 08 60 01 80    	mov    %esi,-0x7ffe9ff8(%rdi)
ffffffff80000613:	c7 87 0c 60 01 80 00 	movl   $0x0,-0x7ffe9ff4(%rdi)
ffffffff8000061a:	00 00 00 
ffffffff8000061d:	c3                   	ret    
ffffffff8000061e:	66 90                	xchg   %ax,%ax

ffffffff80000620 <init_idt>:
ffffffff80000620:	f3 0f 1e fa          	endbr64 
ffffffff80000624:	b8 ff 0f 00 00       	mov    $0xfff,%eax
ffffffff80000629:	48 83 ec 08          	sub    $0x8,%rsp
ffffffff8000062d:	48 c7 05 ca 49 01 00 	movq   $0xffffffff80016000,0x149ca(%rip)        # ffffffff80015002 <idtr+0x2>
ffffffff80000634:	00 60 01 80 
ffffffff80000638:	66 89 05 c1 49 01 00 	mov    %ax,0x149c1(%rip)        # ffffffff80015000 <idtr>
ffffffff8000063f:	31 c0                	xor    %eax,%eax
ffffffff80000641:	e8 1a 00 00 00       	call   ffffffff80000660 <isr_install>
ffffffff80000646:	48 c7 c7 00 50 01 80 	mov    $0xffffffff80015000,%rdi
ffffffff8000064d:	48 83 c4 08          	add    $0x8,%rsp
ffffffff80000651:	e9 1a 10 00 00       	jmp    ffffffff80001670 <idt_reload>
ffffffff80000656:	66 2e 0f 1f 84 00 00 	cs nopw 0x0(%rax,%rax,1)
ffffffff8000065d:	00 00 00 

ffffffff80000660 <isr_install>:
ffffffff80000660:	f3 0f 1e fa          	endbr64 
ffffffff80000664:	48 83 ec 08          	sub    $0x8,%rsp
ffffffff80000668:	31 ff                	xor    %edi,%edi
ffffffff8000066a:	b9 01 00 00 00       	mov    $0x1,%ecx
ffffffff8000066f:	ba 8f 00 00 00       	mov    $0x8f,%edx
ffffffff80000674:	48 c7 c6 be 14 00 80 	mov    $0xffffffff800014be,%rsi
ffffffff8000067b:	e8 50 ff ff ff       	call   ffffffff800005d0 <idt_set_descriptor>
ffffffff80000680:	b9 01 00 00 00       	mov    $0x1,%ecx
ffffffff80000685:	ba 8f 00 00 00       	mov    $0x8f,%edx
ffffffff8000068a:	48 c7 c6 c7 14 00 80 	mov    $0xffffffff800014c7,%rsi
ffffffff80000691:	bf 01 00 00 00       	mov    $0x1,%edi
ffffffff80000696:	e8 35 ff ff ff       	call   ffffffff800005d0 <idt_set_descriptor>
ffffffff8000069b:	b9 01 00 00 00       	mov    $0x1,%ecx
ffffffff800006a0:	ba 8f 00 00 00       	mov    $0x8f,%edx
ffffffff800006a5:	48 c7 c6 d0 14 00 80 	mov    $0xffffffff800014d0,%rsi
ffffffff800006ac:	bf 02 00 00 00       	mov    $0x2,%edi
ffffffff800006b1:	e8 1a ff ff ff       	call   ffffffff800005d0 <idt_set_descriptor>
ffffffff800006b6:	b9 01 00 00 00       	mov    $0x1,%ecx
ffffffff800006bb:	ba 8f 00 00 00       	mov    $0x8f,%edx
ffffffff800006c0:	48 c7 c6 d9 14 00 80 	mov    $0xffffffff800014d9,%rsi
ffffffff800006c7:	bf 03 00 00 00       	mov    $0x3,%edi
ffffffff800006cc:	e8 ff fe ff ff       	call   ffffffff800005d0 <idt_set_descriptor>
ffffffff800006d1:	b9 01 00 00 00       	mov    $0x1,%ecx
ffffffff800006d6:	ba 8f 00 00 00       	mov    $0x8f,%edx
ffffffff800006db:	48 c7 c6 e2 14 00 80 	mov    $0xffffffff800014e2,%rsi
ffffffff800006e2:	bf 04 00 00 00       	mov    $0x4,%edi
ffffffff800006e7:	e8 e4 fe ff ff       	call   ffffffff800005d0 <idt_set_descriptor>
ffffffff800006ec:	b9 01 00 00 00       	mov    $0x1,%ecx
ffffffff800006f1:	ba 8f 00 00 00       	mov    $0x8f,%edx
ffffffff800006f6:	48 c7 c6 eb 14 00 80 	mov    $0xffffffff800014eb,%rsi
ffffffff800006fd:	bf 05 00 00 00       	mov    $0x5,%edi
ffffffff80000702:	e8 c9 fe ff ff       	call   ffffffff800005d0 <idt_set_descriptor>
ffffffff80000707:	b9 01 00 00 00       	mov    $0x1,%ecx
ffffffff8000070c:	ba 8f 00 00 00       	mov    $0x8f,%edx
ffffffff80000711:	48 c7 c6 f4 14 00 80 	mov    $0xffffffff800014f4,%rsi
ffffffff80000718:	bf 06 00 00 00       	mov    $0x6,%edi
ffffffff8000071d:	e8 ae fe ff ff       	call   ffffffff800005d0 <idt_set_descriptor>
ffffffff80000722:	b9 01 00 00 00       	mov    $0x1,%ecx
ffffffff80000727:	ba 8f 00 00 00       	mov    $0x8f,%edx
ffffffff8000072c:	48 c7 c6 fd 14 00 80 	mov    $0xffffffff800014fd,%rsi
ffffffff80000733:	bf 07 00 00 00       	mov    $0x7,%edi
ffffffff80000738:	e8 93 fe ff ff       	call   ffffffff800005d0 <idt_set_descriptor>
ffffffff8000073d:	b9 01 00 00 00       	mov    $0x1,%ecx
ffffffff80000742:	ba 8f 00 00 00       	mov    $0x8f,%edx
ffffffff80000747:	48 c7 c6 06 15 00 80 	mov    $0xffffffff80001506,%rsi
ffffffff8000074e:	bf 08 00 00 00       	mov    $0x8,%edi
ffffffff80000753:	e8 78 fe ff ff       	call   ffffffff800005d0 <idt_set_descriptor>
ffffffff80000758:	b9 01 00 00 00       	mov    $0x1,%ecx
ffffffff8000075d:	ba 8f 00 00 00       	mov    $0x8f,%edx
ffffffff80000762:	48 c7 c6 0d 15 00 80 	mov    $0xffffffff8000150d,%rsi
ffffffff80000769:	bf 09 00 00 00       	mov    $0x9,%edi
ffffffff8000076e:	e8 5d fe ff ff       	call   ffffffff800005d0 <idt_set_descriptor>
ffffffff80000773:	b9 01 00 00 00       	mov    $0x1,%ecx
ffffffff80000778:	ba 8f 00 00 00       	mov    $0x8f,%edx
ffffffff8000077d:	48 c7 c6 16 15 00 80 	mov    $0xffffffff80001516,%rsi
ffffffff80000784:	bf 0a 00 00 00       	mov    $0xa,%edi
ffffffff80000789:	e8 42 fe ff ff       	call   ffffffff800005d0 <idt_set_descriptor>
ffffffff8000078e:	b9 01 00 00 00       	mov    $0x1,%ecx
ffffffff80000793:	ba 8f 00 00 00       	mov    $0x8f,%edx
ffffffff80000798:	48 c7 c6 1d 15 00 80 	mov    $0xffffffff8000151d,%rsi
ffffffff8000079f:	bf 0b 00 00 00       	mov    $0xb,%edi
ffffffff800007a4:	e8 27 fe ff ff       	call   ffffffff800005d0 <idt_set_descriptor>
ffffffff800007a9:	b9 01 00 00 00       	mov    $0x1,%ecx
ffffffff800007ae:	ba 8f 00 00 00       	mov    $0x8f,%edx
ffffffff800007b3:	48 c7 c6 24 15 00 80 	mov    $0xffffffff80001524,%rsi
ffffffff800007ba:	bf 0c 00 00 00       	mov    $0xc,%edi
ffffffff800007bf:	e8 0c fe ff ff       	call   ffffffff800005d0 <idt_set_descriptor>
ffffffff800007c4:	b9 01 00 00 00       	mov    $0x1,%ecx
ffffffff800007c9:	ba 8f 00 00 00       	mov    $0x8f,%edx
ffffffff800007ce:	48 c7 c6 2b 15 00 80 	mov    $0xffffffff8000152b,%rsi
ffffffff800007d5:	bf 0d 00 00 00       	mov    $0xd,%edi
ffffffff800007da:	e8 f1 fd ff ff       	call   ffffffff800005d0 <idt_set_descriptor>
ffffffff800007df:	b9 01 00 00 00       	mov    $0x1,%ecx
ffffffff800007e4:	ba 8f 00 00 00       	mov    $0x8f,%edx
ffffffff800007e9:	48 c7 c6 32 15 00 80 	mov    $0xffffffff80001532,%rsi
ffffffff800007f0:	bf 0e 00 00 00       	mov    $0xe,%edi
ffffffff800007f5:	e8 d6 fd ff ff       	call   ffffffff800005d0 <idt_set_descriptor>
ffffffff800007fa:	b9 01 00 00 00       	mov    $0x1,%ecx
ffffffff800007ff:	ba 8f 00 00 00       	mov    $0x8f,%edx
ffffffff80000804:	48 c7 c6 39 15 00 80 	mov    $0xffffffff80001539,%rsi
ffffffff8000080b:	bf 0f 00 00 00       	mov    $0xf,%edi
ffffffff80000810:	e8 bb fd ff ff       	call   ffffffff800005d0 <idt_set_descriptor>
ffffffff80000815:	b9 01 00 00 00       	mov    $0x1,%ecx
ffffffff8000081a:	ba 8f 00 00 00       	mov    $0x8f,%edx
ffffffff8000081f:	48 c7 c6 42 15 00 80 	mov    $0xffffffff80001542,%rsi
ffffffff80000826:	bf 10 00 00 00       	mov    $0x10,%edi
ffffffff8000082b:	e8 a0 fd ff ff       	call   ffffffff800005d0 <idt_set_descriptor>
ffffffff80000830:	b9 01 00 00 00       	mov    $0x1,%ecx
ffffffff80000835:	ba 8f 00 00 00       	mov    $0x8f,%edx
ffffffff8000083a:	48 c7 c6 4b 15 00 80 	mov    $0xffffffff8000154b,%rsi
ffffffff80000841:	bf 11 00 00 00       	mov    $0x11,%edi
ffffffff80000846:	e8 85 fd ff ff       	call   ffffffff800005d0 <idt_set_descriptor>
ffffffff8000084b:	b9 01 00 00 00       	mov    $0x1,%ecx
ffffffff80000850:	ba 8f 00 00 00       	mov    $0x8f,%edx
ffffffff80000855:	48 c7 c6 54 15 00 80 	mov    $0xffffffff80001554,%rsi
ffffffff8000085c:	bf 12 00 00 00       	mov    $0x12,%edi
ffffffff80000861:	e8 6a fd ff ff       	call   ffffffff800005d0 <idt_set_descriptor>
ffffffff80000866:	b9 01 00 00 00       	mov    $0x1,%ecx
ffffffff8000086b:	ba 8f 00 00 00       	mov    $0x8f,%edx
ffffffff80000870:	48 c7 c6 5d 15 00 80 	mov    $0xffffffff8000155d,%rsi
ffffffff80000877:	bf 13 00 00 00       	mov    $0x13,%edi
ffffffff8000087c:	e8 4f fd ff ff       	call   ffffffff800005d0 <idt_set_descriptor>
ffffffff80000881:	b9 01 00 00 00       	mov    $0x1,%ecx
ffffffff80000886:	ba 8f 00 00 00       	mov    $0x8f,%edx
ffffffff8000088b:	48 c7 c6 66 15 00 80 	mov    $0xffffffff80001566,%rsi
ffffffff80000892:	bf 14 00 00 00       	mov    $0x14,%edi
ffffffff80000897:	e8 34 fd ff ff       	call   ffffffff800005d0 <idt_set_descriptor>
ffffffff8000089c:	b9 01 00 00 00       	mov    $0x1,%ecx
ffffffff800008a1:	ba 8f 00 00 00       	mov    $0x8f,%edx
ffffffff800008a6:	48 c7 c6 6f 15 00 80 	mov    $0xffffffff8000156f,%rsi
ffffffff800008ad:	bf 15 00 00 00       	mov    $0x15,%edi
ffffffff800008b2:	e8 19 fd ff ff       	call   ffffffff800005d0 <idt_set_descriptor>
ffffffff800008b7:	b9 01 00 00 00       	mov    $0x1,%ecx
ffffffff800008bc:	ba 8f 00 00 00       	mov    $0x8f,%edx
ffffffff800008c1:	48 c7 c6 78 15 00 80 	mov    $0xffffffff80001578,%rsi
ffffffff800008c8:	bf 16 00 00 00       	mov    $0x16,%edi
ffffffff800008cd:	e8 fe fc ff ff       	call   ffffffff800005d0 <idt_set_descriptor>
ffffffff800008d2:	b9 01 00 00 00       	mov    $0x1,%ecx
ffffffff800008d7:	ba 8f 00 00 00       	mov    $0x8f,%edx
ffffffff800008dc:	48 c7 c6 81 15 00 80 	mov    $0xffffffff80001581,%rsi
ffffffff800008e3:	bf 17 00 00 00       	mov    $0x17,%edi
ffffffff800008e8:	e8 e3 fc ff ff       	call   ffffffff800005d0 <idt_set_descriptor>
ffffffff800008ed:	b9 01 00 00 00       	mov    $0x1,%ecx
ffffffff800008f2:	ba 8f 00 00 00       	mov    $0x8f,%edx
ffffffff800008f7:	48 c7 c6 8a 15 00 80 	mov    $0xffffffff8000158a,%rsi
ffffffff800008fe:	bf 18 00 00 00       	mov    $0x18,%edi
ffffffff80000903:	e8 c8 fc ff ff       	call   ffffffff800005d0 <idt_set_descriptor>
ffffffff80000908:	b9 01 00 00 00       	mov    $0x1,%ecx
ffffffff8000090d:	ba 8f 00 00 00       	mov    $0x8f,%edx
ffffffff80000912:	48 c7 c6 93 15 00 80 	mov    $0xffffffff80001593,%rsi
ffffffff80000919:	bf 19 00 00 00       	mov    $0x19,%edi
ffffffff8000091e:	e8 ad fc ff ff       	call   ffffffff800005d0 <idt_set_descriptor>
ffffffff80000923:	b9 01 00 00 00       	mov    $0x1,%ecx
ffffffff80000928:	ba 8f 00 00 00       	mov    $0x8f,%edx
ffffffff8000092d:	48 c7 c6 9c 15 00 80 	mov    $0xffffffff8000159c,%rsi
ffffffff80000934:	bf 1a 00 00 00       	mov    $0x1a,%edi
ffffffff80000939:	e8 92 fc ff ff       	call   ffffffff800005d0 <idt_set_descriptor>
ffffffff8000093e:	b9 01 00 00 00       	mov    $0x1,%ecx
ffffffff80000943:	ba 8f 00 00 00       	mov    $0x8f,%edx
ffffffff80000948:	48 c7 c6 a5 15 00 80 	mov    $0xffffffff800015a5,%rsi
ffffffff8000094f:	bf 1b 00 00 00       	mov    $0x1b,%edi
ffffffff80000954:	e8 77 fc ff ff       	call   ffffffff800005d0 <idt_set_descriptor>
ffffffff80000959:	b9 01 00 00 00       	mov    $0x1,%ecx
ffffffff8000095e:	ba 8f 00 00 00       	mov    $0x8f,%edx
ffffffff80000963:	48 c7 c6 ae 15 00 80 	mov    $0xffffffff800015ae,%rsi
ffffffff8000096a:	bf 1c 00 00 00       	mov    $0x1c,%edi
ffffffff8000096f:	e8 5c fc ff ff       	call   ffffffff800005d0 <idt_set_descriptor>
ffffffff80000974:	b9 01 00 00 00       	mov    $0x1,%ecx
ffffffff80000979:	ba 8f 00 00 00       	mov    $0x8f,%edx
ffffffff8000097e:	48 c7 c6 b7 15 00 80 	mov    $0xffffffff800015b7,%rsi
ffffffff80000985:	bf 1d 00 00 00       	mov    $0x1d,%edi
ffffffff8000098a:	e8 41 fc ff ff       	call   ffffffff800005d0 <idt_set_descriptor>
ffffffff8000098f:	b9 01 00 00 00       	mov    $0x1,%ecx
ffffffff80000994:	ba 8f 00 00 00       	mov    $0x8f,%edx
ffffffff80000999:	48 c7 c6 c0 15 00 80 	mov    $0xffffffff800015c0,%rsi
ffffffff800009a0:	bf 1e 00 00 00       	mov    $0x1e,%edi
ffffffff800009a5:	e8 26 fc ff ff       	call   ffffffff800005d0 <idt_set_descriptor>
ffffffff800009aa:	b9 01 00 00 00       	mov    $0x1,%ecx
ffffffff800009af:	ba 8f 00 00 00       	mov    $0x8f,%edx
ffffffff800009b4:	48 c7 c6 c9 15 00 80 	mov    $0xffffffff800015c9,%rsi
ffffffff800009bb:	bf 1f 00 00 00       	mov    $0x1f,%edi
ffffffff800009c0:	e8 0b fc ff ff       	call   ffffffff800005d0 <idt_set_descriptor>
ffffffff800009c5:	bf 20 00 00 00       	mov    $0x20,%edi
ffffffff800009ca:	e8 01 08 00 00       	call   ffffffff800011d0 <pic_remap_offsets>
ffffffff800009cf:	b9 01 00 00 00       	mov    $0x1,%ecx
ffffffff800009d4:	ba 8e 00 00 00       	mov    $0x8e,%edx
ffffffff800009d9:	48 c7 c6 d2 15 00 80 	mov    $0xffffffff800015d2,%rsi
ffffffff800009e0:	bf 20 00 00 00       	mov    $0x20,%edi
ffffffff800009e5:	e8 e6 fb ff ff       	call   ffffffff800005d0 <idt_set_descriptor>
ffffffff800009ea:	b9 01 00 00 00       	mov    $0x1,%ecx
ffffffff800009ef:	ba 8e 00 00 00       	mov    $0x8e,%edx
ffffffff800009f4:	48 c7 c6 db 15 00 80 	mov    $0xffffffff800015db,%rsi
ffffffff800009fb:	bf 21 00 00 00       	mov    $0x21,%edi
ffffffff80000a00:	e8 cb fb ff ff       	call   ffffffff800005d0 <idt_set_descriptor>
ffffffff80000a05:	b9 01 00 00 00       	mov    $0x1,%ecx
ffffffff80000a0a:	ba 8e 00 00 00       	mov    $0x8e,%edx
ffffffff80000a0f:	48 c7 c6 e4 15 00 80 	mov    $0xffffffff800015e4,%rsi
ffffffff80000a16:	bf 22 00 00 00       	mov    $0x22,%edi
ffffffff80000a1b:	e8 b0 fb ff ff       	call   ffffffff800005d0 <idt_set_descriptor>
ffffffff80000a20:	b9 01 00 00 00       	mov    $0x1,%ecx
ffffffff80000a25:	ba 8e 00 00 00       	mov    $0x8e,%edx
ffffffff80000a2a:	48 c7 c6 ed 15 00 80 	mov    $0xffffffff800015ed,%rsi
ffffffff80000a31:	bf 23 00 00 00       	mov    $0x23,%edi
ffffffff80000a36:	e8 95 fb ff ff       	call   ffffffff800005d0 <idt_set_descriptor>
ffffffff80000a3b:	b9 01 00 00 00       	mov    $0x1,%ecx
ffffffff80000a40:	ba 8e 00 00 00       	mov    $0x8e,%edx
ffffffff80000a45:	48 c7 c6 f6 15 00 80 	mov    $0xffffffff800015f6,%rsi
ffffffff80000a4c:	bf 24 00 00 00       	mov    $0x24,%edi
ffffffff80000a51:	e8 7a fb ff ff       	call   ffffffff800005d0 <idt_set_descriptor>
ffffffff80000a56:	b9 01 00 00 00       	mov    $0x1,%ecx
ffffffff80000a5b:	ba 8e 00 00 00       	mov    $0x8e,%edx
ffffffff80000a60:	48 c7 c6 ff 15 00 80 	mov    $0xffffffff800015ff,%rsi
ffffffff80000a67:	bf 25 00 00 00       	mov    $0x25,%edi
ffffffff80000a6c:	e8 5f fb ff ff       	call   ffffffff800005d0 <idt_set_descriptor>
ffffffff80000a71:	b9 01 00 00 00       	mov    $0x1,%ecx
ffffffff80000a76:	ba 8e 00 00 00       	mov    $0x8e,%edx
ffffffff80000a7b:	48 c7 c6 08 16 00 80 	mov    $0xffffffff80001608,%rsi
ffffffff80000a82:	bf 26 00 00 00       	mov    $0x26,%edi
ffffffff80000a87:	e8 44 fb ff ff       	call   ffffffff800005d0 <idt_set_descriptor>
ffffffff80000a8c:	b9 01 00 00 00       	mov    $0x1,%ecx
ffffffff80000a91:	ba 8e 00 00 00       	mov    $0x8e,%edx
ffffffff80000a96:	48 c7 c6 11 16 00 80 	mov    $0xffffffff80001611,%rsi
ffffffff80000a9d:	bf 27 00 00 00       	mov    $0x27,%edi
ffffffff80000aa2:	e8 29 fb ff ff       	call   ffffffff800005d0 <idt_set_descriptor>
ffffffff80000aa7:	b9 01 00 00 00       	mov    $0x1,%ecx
ffffffff80000aac:	ba 8e 00 00 00       	mov    $0x8e,%edx
ffffffff80000ab1:	48 c7 c6 1a 16 00 80 	mov    $0xffffffff8000161a,%rsi
ffffffff80000ab8:	bf 28 00 00 00       	mov    $0x28,%edi
ffffffff80000abd:	e8 0e fb ff ff       	call   ffffffff800005d0 <idt_set_descriptor>
ffffffff80000ac2:	b9 01 00 00 00       	mov    $0x1,%ecx
ffffffff80000ac7:	ba 8e 00 00 00       	mov    $0x8e,%edx
ffffffff80000acc:	48 c7 c6 23 16 00 80 	mov    $0xffffffff80001623,%rsi
ffffffff80000ad3:	bf 29 00 00 00       	mov    $0x29,%edi
ffffffff80000ad8:	e8 f3 fa ff ff       	call   ffffffff800005d0 <idt_set_descriptor>
ffffffff80000add:	b9 01 00 00 00       	mov    $0x1,%ecx
ffffffff80000ae2:	ba 8e 00 00 00       	mov    $0x8e,%edx
ffffffff80000ae7:	48 c7 c6 2c 16 00 80 	mov    $0xffffffff8000162c,%rsi
ffffffff80000aee:	bf 2a 00 00 00       	mov    $0x2a,%edi
ffffffff80000af3:	e8 d8 fa ff ff       	call   ffffffff800005d0 <idt_set_descriptor>
ffffffff80000af8:	b9 01 00 00 00       	mov    $0x1,%ecx
ffffffff80000afd:	ba 8e 00 00 00       	mov    $0x8e,%edx
ffffffff80000b02:	48 c7 c6 35 16 00 80 	mov    $0xffffffff80001635,%rsi
ffffffff80000b09:	bf 2b 00 00 00       	mov    $0x2b,%edi
ffffffff80000b0e:	e8 bd fa ff ff       	call   ffffffff800005d0 <idt_set_descriptor>
ffffffff80000b13:	b9 01 00 00 00       	mov    $0x1,%ecx
ffffffff80000b18:	ba 8e 00 00 00       	mov    $0x8e,%edx
ffffffff80000b1d:	48 c7 c6 3e 16 00 80 	mov    $0xffffffff8000163e,%rsi
ffffffff80000b24:	bf 2c 00 00 00       	mov    $0x2c,%edi
ffffffff80000b29:	e8 a2 fa ff ff       	call   ffffffff800005d0 <idt_set_descriptor>
ffffffff80000b2e:	b9 01 00 00 00       	mov    $0x1,%ecx
ffffffff80000b33:	ba 8e 00 00 00       	mov    $0x8e,%edx
ffffffff80000b38:	48 c7 c6 47 16 00 80 	mov    $0xffffffff80001647,%rsi
ffffffff80000b3f:	bf 2d 00 00 00       	mov    $0x2d,%edi
ffffffff80000b44:	e8 87 fa ff ff       	call   ffffffff800005d0 <idt_set_descriptor>
ffffffff80000b49:	b9 01 00 00 00       	mov    $0x1,%ecx
ffffffff80000b4e:	ba 8e 00 00 00       	mov    $0x8e,%edx
ffffffff80000b53:	48 c7 c6 50 16 00 80 	mov    $0xffffffff80001650,%rsi
ffffffff80000b5a:	bf 2e 00 00 00       	mov    $0x2e,%edi
ffffffff80000b5f:	e8 6c fa ff ff       	call   ffffffff800005d0 <idt_set_descriptor>
ffffffff80000b64:	b9 01 00 00 00       	mov    $0x1,%ecx
ffffffff80000b69:	ba 8e 00 00 00       	mov    $0x8e,%edx
ffffffff80000b6e:	48 c7 c6 59 16 00 80 	mov    $0xffffffff80001659,%rsi
ffffffff80000b75:	bf 2f 00 00 00       	mov    $0x2f,%edi
ffffffff80000b7a:	48 83 c4 08          	add    $0x8,%rsp
ffffffff80000b7e:	e9 4d fa ff ff       	jmp    ffffffff800005d0 <idt_set_descriptor>
ffffffff80000b83:	66 66 2e 0f 1f 84 00 	data16 cs nopw 0x0(%rax,%rax,1)
ffffffff80000b8a:	00 00 00 00 
ffffffff80000b8e:	66 90                	xchg   %ax,%ax

ffffffff80000b90 <isr_handler>:
ffffffff80000b90:	f3 0f 1e fa          	endbr64 
ffffffff80000b94:	53                   	push   %rbx
ffffffff80000b95:	48 89 fb             	mov    %rdi,%rbx
ffffffff80000b98:	48 c7 c7 18 27 00 80 	mov    $0xffffffff80002718,%rdi
ffffffff80000b9f:	e8 fc f4 ff ff       	call   ffffffff800000a0 <print>
ffffffff80000ba4:	48 8b 7b 58          	mov    0x58(%rbx),%rdi
ffffffff80000ba8:	ba 0a 00 00 00       	mov    $0xa,%edx
ffffffff80000bad:	be 03 00 00 00       	mov    $0x3,%esi
ffffffff80000bb2:	e8 e9 f5 ff ff       	call   ffffffff800001a0 <printui>
ffffffff80000bb7:	48 c7 c7 f8 29 00 80 	mov    $0xffffffff800029f8,%rdi
ffffffff80000bbe:	e8 dd f4 ff ff       	call   ffffffff800000a0 <print>
ffffffff80000bc3:	48 c7 c7 2d 27 00 80 	mov    $0xffffffff8000272d,%rdi
ffffffff80000bca:	e8 d1 f4 ff ff       	call   ffffffff800000a0 <print>
ffffffff80000bcf:	48 8b 43 58          	mov    0x58(%rbx),%rax
ffffffff80000bd3:	48 8b 3c c5 60 3a 00 	mov    -0x7fffc5a0(,%rax,8),%rdi
ffffffff80000bda:	80 
ffffffff80000bdb:	e8 c0 f4 ff ff       	call   ffffffff800000a0 <print>
ffffffff80000be0:	48 c7 c7 2f 27 00 80 	mov    $0xffffffff8000272f,%rdi
ffffffff80000be7:	e8 b4 f4 ff ff       	call   ffffffff800000a0 <print>
ffffffff80000bec:	48 c7 c7 31 27 00 80 	mov    $0xffffffff80002731,%rdi
ffffffff80000bf3:	e8 a8 f4 ff ff       	call   ffffffff800000a0 <print>
ffffffff80000bf8:	48 8b 7b 60          	mov    0x60(%rbx),%rdi
ffffffff80000bfc:	ba 0a 00 00 00       	mov    $0xa,%edx
ffffffff80000c01:	be 10 00 00 00       	mov    $0x10,%esi
ffffffff80000c06:	e8 95 f5 ff ff       	call   ffffffff800001a0 <printui>
ffffffff80000c0b:	48 c7 c7 44 27 00 80 	mov    $0xffffffff80002744,%rdi
ffffffff80000c12:	e8 89 f4 ff ff       	call   ffffffff800000a0 <print>
ffffffff80000c17:	48 8b 7b 68          	mov    0x68(%rbx),%rdi
ffffffff80000c1b:	ba 10 00 00 00       	mov    $0x10,%edx
ffffffff80000c20:	be 10 00 00 00       	mov    $0x10,%esi
ffffffff80000c25:	e8 76 f5 ff ff       	call   ffffffff800001a0 <printui>
ffffffff80000c2a:	fa                   	cli    
ffffffff80000c2b:	f4                   	hlt    
ffffffff80000c2c:	5b                   	pop    %rbx
ffffffff80000c2d:	c3                   	ret    
ffffffff80000c2e:	66 90                	xchg   %ax,%ax

ffffffff80000c30 <register_interrupt_handler>:
ffffffff80000c30:	f3 0f 1e fa          	endbr64 
ffffffff80000c34:	40 0f b6 ff          	movzbl %dil,%edi
ffffffff80000c38:	48 89 34 fd 00 70 01 	mov    %rsi,-0x7ffe9000(,%rdi,8)
ffffffff80000c3f:	80 
ffffffff80000c40:	c3                   	ret    
ffffffff80000c41:	66 66 2e 0f 1f 84 00 	data16 cs nopw 0x0(%rax,%rax,1)
ffffffff80000c48:	00 00 00 00 
ffffffff80000c4c:	0f 1f 40 00          	nopl   0x0(%rax)

ffffffff80000c50 <irq_handler>:
ffffffff80000c50:	f3 0f 1e fa          	endbr64 
ffffffff80000c54:	48 8b 57 58          	mov    0x58(%rdi),%rdx
ffffffff80000c58:	48 8b 04 d5 00 70 01 	mov    -0x7ffe9000(,%rdx,8),%rax
ffffffff80000c5f:	80 
ffffffff80000c60:	48 85 c0             	test   %rax,%rax
ffffffff80000c63:	74 0b                	je     ffffffff80000c70 <irq_handler+0x20>
ffffffff80000c65:	ff e0                	jmp    *%rax
ffffffff80000c67:	66 0f 1f 84 00 00 00 	nopw   0x0(%rax,%rax,1)
ffffffff80000c6e:	00 00 
ffffffff80000c70:	0f b6 fa             	movzbl %dl,%edi
ffffffff80000c73:	e9 98 05 00 00       	jmp    ffffffff80001210 <pic_send_eoi>
ffffffff80000c78:	0f 1f 84 00 00 00 00 	nopl   0x0(%rax,%rax,1)
ffffffff80000c7f:	00 

ffffffff80000c80 <really_done>:
ffffffff80000c80:	50                   	push   %rax
ffffffff80000c81:	58                   	pop    %rax
ffffffff80000c82:	48 c7 c7 84 28 00 80 	mov    $0xffffffff80002884,%rdi
ffffffff80000c89:	48 83 ec 08          	sub    $0x8,%rsp
ffffffff80000c8d:	e8 0e f4 ff ff       	call   ffffffff800000a0 <print>
ffffffff80000c92:	66 0f 1f 44 00 00    	nopw   0x0(%rax,%rax,1)
ffffffff80000c98:	fa                   	cli    
ffffffff80000c99:	f4                   	hlt    
ffffffff80000c9a:	eb fc                	jmp    ffffffff80000c98 <really_done+0x18>
ffffffff80000c9c:	0f 1f 40 00          	nopl   0x0(%rax)

ffffffff80000ca0 <_start>:
ffffffff80000ca0:	f3 0f 1e fa          	endbr64 
ffffffff80000ca4:	48 8b 05 1d 2f 00 00 	mov    0x2f1d(%rip),%rax        # ffffffff80003bc8 <stack_request+0x28>
ffffffff80000cab:	41 54                	push   %r12
ffffffff80000cad:	55                   	push   %rbp
ffffffff80000cae:	53                   	push   %rbx
ffffffff80000caf:	48 85 c0             	test   %rax,%rax
ffffffff80000cb2:	75 05                	jne    ffffffff80000cb9 <_start+0x19>
ffffffff80000cb4:	e8 c7 ff ff ff       	call   ffffffff80000c80 <really_done>
ffffffff80000cb9:	31 c0                	xor    %eax,%eax
ffffffff80000cbb:	e8 90 f6 ff ff       	call   ffffffff80000350 <init_gdt>
ffffffff80000cc0:	31 ff                	xor    %edi,%edi
ffffffff80000cc2:	e8 69 01 00 00       	call   ffffffff80000e30 <init_tss>
ffffffff80000cc7:	31 c0                	xor    %eax,%eax
ffffffff80000cc9:	e8 52 f9 ff ff       	call   ffffffff80000620 <init_idt>
ffffffff80000cce:	31 c0                	xor    %eax,%eax
ffffffff80000cd0:	e8 9b f3 ff ff       	call   ffffffff80000070 <init_terminal>
ffffffff80000cd5:	48 85 c0             	test   %rax,%rax
ffffffff80000cd8:	74 da                	je     ffffffff80000cb4 <_start+0x14>
ffffffff80000cda:	fb                   	sti    
ffffffff80000cdb:	31 c0                	xor    %eax,%eax
ffffffff80000cdd:	e8 ae 01 00 00       	call   ffffffff80000e90 <init_keyboard>
ffffffff80000ce2:	85 c0                	test   %eax,%eax
ffffffff80000ce4:	0f 85 1e 01 00 00    	jne    ffffffff80000e08 <_start+0x168>
ffffffff80000cea:	48 8b 05 97 2e 00 00 	mov    0x2e97(%rip),%rax        # ffffffff80003b88 <mmap_request+0x28>
ffffffff80000cf1:	4c 8b 60 08          	mov    0x8(%rax),%r12
ffffffff80000cf5:	48 8b 05 8c 2e 00 00 	mov    0x2e8c(%rip),%rax        # ffffffff80003b88 <mmap_request+0x28>
ffffffff80000cfc:	48 8b 68 10          	mov    0x10(%rax),%rbp
ffffffff80000d00:	4d 85 e4             	test   %r12,%r12
ffffffff80000d03:	0f 84 97 00 00 00    	je     ffffffff80000da0 <_start+0x100>
ffffffff80000d09:	31 db                	xor    %ebx,%ebx
ffffffff80000d0b:	0f 1f 44 00 00       	nopl   0x0(%rax,%rax,1)
ffffffff80000d10:	48 8b 44 dd 00       	mov    0x0(%rbp,%rbx,8),%rax
ffffffff80000d15:	ba 10 00 00 00       	mov    $0x10,%edx
ffffffff80000d1a:	be 10 00 00 00       	mov    $0x10,%esi
ffffffff80000d1f:	48 8b 38             	mov    (%rax),%rdi
ffffffff80000d22:	e8 79 f4 ff ff       	call   ffffffff800001a0 <printui>
ffffffff80000d27:	48 c7 c7 8d 28 00 80 	mov    $0xffffffff8000288d,%rdi
ffffffff80000d2e:	e8 6d f3 ff ff       	call   ffffffff800000a0 <print>
ffffffff80000d33:	48 8b 44 dd 00       	mov    0x0(%rbp,%rbx,8),%rax
ffffffff80000d38:	ba 10 00 00 00       	mov    $0x10,%edx
ffffffff80000d3d:	be 10 00 00 00       	mov    $0x10,%esi
ffffffff80000d42:	48 8b 78 08          	mov    0x8(%rax),%rdi
ffffffff80000d46:	e8 55 f4 ff ff       	call   ffffffff800001a0 <printui>
ffffffff80000d4b:	48 c7 c7 8d 28 00 80 	mov    $0xffffffff8000288d,%rdi
ffffffff80000d52:	e8 49 f3 ff ff       	call   ffffffff800000a0 <print>
ffffffff80000d57:	48 8b 44 dd 00       	mov    0x0(%rbp,%rbx,8),%rax
ffffffff80000d5c:	48 83 78 10 07       	cmpq   $0x7,0x10(%rax)
ffffffff80000d61:	0f 87 b2 00 00 00    	ja     ffffffff80000e19 <_start+0x179>
ffffffff80000d67:	48 8b 40 10          	mov    0x10(%rax),%rax
ffffffff80000d6b:	3e ff 24 c5 38 29 00 	notrack jmp *-0x7fffd6c8(,%rax,8)
ffffffff80000d72:	80 
ffffffff80000d73:	48 c7 c7 e0 28 00 80 	mov    $0xffffffff800028e0,%rdi
ffffffff80000d7a:	e8 21 f3 ff ff       	call   ffffffff800000a0 <print>
ffffffff80000d7f:	90                   	nop
ffffffff80000d80:	48 c7 c7 f8 29 00 80 	mov    $0xffffffff800029f8,%rdi
ffffffff80000d87:	48 83 c3 01          	add    $0x1,%rbx
ffffffff80000d8b:	e8 10 f3 ff ff       	call   ffffffff800000a0 <print>
ffffffff80000d90:	4c 39 e3             	cmp    %r12,%rbx
ffffffff80000d93:	0f 85 77 ff ff ff    	jne    ffffffff80000d10 <_start+0x70>
ffffffff80000d99:	0f 1f 80 00 00 00 00 	nopl   0x0(%rax)
ffffffff80000da0:	f4                   	hlt    
ffffffff80000da1:	eb fd                	jmp    ffffffff80000da0 <_start+0x100>
ffffffff80000da3:	48 c7 c7 c9 28 00 80 	mov    $0xffffffff800028c9,%rdi
ffffffff80000daa:	e8 f1 f2 ff ff       	call   ffffffff800000a0 <print>
ffffffff80000daf:	eb cf                	jmp    ffffffff80000d80 <_start+0xe0>
ffffffff80000db1:	48 c7 c7 be 28 00 80 	mov    $0xffffffff800028be,%rdi
ffffffff80000db8:	e8 e3 f2 ff ff       	call   ffffffff800000a0 <print>
ffffffff80000dbd:	eb c1                	jmp    ffffffff80000d80 <_start+0xe0>
ffffffff80000dbf:	48 c7 c7 b5 28 00 80 	mov    $0xffffffff800028b5,%rdi
ffffffff80000dc6:	e8 d5 f2 ff ff       	call   ffffffff800000a0 <print>
ffffffff80000dcb:	eb b3                	jmp    ffffffff80000d80 <_start+0xe0>
ffffffff80000dcd:	48 c7 c7 a4 28 00 80 	mov    $0xffffffff800028a4,%rdi
ffffffff80000dd4:	e8 c7 f2 ff ff       	call   ffffffff800000a0 <print>
ffffffff80000dd9:	eb a5                	jmp    ffffffff80000d80 <_start+0xe0>
ffffffff80000ddb:	48 c7 c7 9b 28 00 80 	mov    $0xffffffff8000289b,%rdi
ffffffff80000de2:	e8 b9 f2 ff ff       	call   ffffffff800000a0 <print>
ffffffff80000de7:	eb 97                	jmp    ffffffff80000d80 <_start+0xe0>
ffffffff80000de9:	48 c7 c7 93 28 00 80 	mov    $0xffffffff80002893,%rdi
ffffffff80000df0:	e8 ab f2 ff ff       	call   ffffffff800000a0 <print>
ffffffff80000df5:	eb 89                	jmp    ffffffff80000d80 <_start+0xe0>
ffffffff80000df7:	48 c7 c7 f3 28 00 80 	mov    $0xffffffff800028f3,%rdi
ffffffff80000dfe:	e8 9d f2 ff ff       	call   ffffffff800000a0 <print>
ffffffff80000e03:	e9 78 ff ff ff       	jmp    ffffffff80000d80 <_start+0xe0>
ffffffff80000e08:	48 c7 c7 08 29 00 80 	mov    $0xffffffff80002908,%rdi
ffffffff80000e0f:	e8 8c f2 ff ff       	call   ffffffff800000a0 <print>
ffffffff80000e14:	e9 9b fe ff ff       	jmp    ffffffff80000cb4 <_start+0x14>
ffffffff80000e19:	48 c7 c7 ff 28 00 80 	mov    $0xffffffff800028ff,%rdi
ffffffff80000e20:	e8 7b f2 ff ff       	call   ffffffff800000a0 <print>
ffffffff80000e25:	e9 56 ff ff ff       	jmp    ffffffff80000d80 <_start+0xe0>
ffffffff80000e2a:	66 0f 1f 44 00 00    	nopw   0x0(%rax,%rax,1)

ffffffff80000e30 <init_tss>:
ffffffff80000e30:	f3 0f 1e fa          	endbr64 
ffffffff80000e34:	48 63 ff             	movslq %edi,%rdi
ffffffff80000e37:	55                   	push   %rbp
ffffffff80000e38:	ba 68 00 00 00       	mov    $0x68,%edx
ffffffff80000e3d:	31 f6                	xor    %esi,%esi
ffffffff80000e3f:	48 8d 04 7f          	lea    (%rdi,%rdi,2),%rax
ffffffff80000e43:	48 8d 04 87          	lea    (%rdi,%rax,4),%rax
ffffffff80000e47:	48 8d 2c c5 00 98 01 	lea    -0x7ffe6800(,%rax,8),%rbp
ffffffff80000e4e:	80 
ffffffff80000e4f:	48 89 ef             	mov    %rbp,%rdi
ffffffff80000e52:	e8 39 08 00 00       	call   ffffffff80001690 <memset>
ffffffff80000e57:	48 89 ef             	mov    %rbp,%rdi
ffffffff80000e5a:	b8 68 00 00 00       	mov    $0x68,%eax
ffffffff80000e5f:	48 c7 45 24 00 98 01 	movq   $0xffffffff80019800,0x24(%rbp)
ffffffff80000e66:	80 
ffffffff80000e67:	48 c7 45 04 00 98 01 	movq   $0xffffffff80019800,0x4(%rbp)
ffffffff80000e6e:	80 
ffffffff80000e6f:	66 89 45 66          	mov    %ax,0x66(%rbp)
ffffffff80000e73:	e8 e8 f6 ff ff       	call   ffffffff80000560 <gdt_install_tss>
ffffffff80000e78:	5d                   	pop    %rbp
ffffffff80000e79:	0f b7 f8             	movzwl %ax,%edi
ffffffff80000e7c:	e9 ff 07 00 00       	jmp    ffffffff80001680 <tss_reload>
ffffffff80000e81:	66 2e 0f 1f 84 00 00 	cs nopw 0x0(%rax,%rax,1)
ffffffff80000e88:	00 00 00 
ffffffff80000e8b:	0f 1f 44 00 00       	nopl   0x0(%rax,%rax,1)

ffffffff80000e90 <init_keyboard>:
ffffffff80000e90:	f3 0f 1e fa          	endbr64 
ffffffff80000e94:	48 83 ec 08          	sub    $0x8,%rsp
ffffffff80000e98:	48 c7 c6 70 0f 00 80 	mov    $0xffffffff80000f70,%rsi
ffffffff80000e9f:	bf 21 00 00 00       	mov    $0x21,%edi
ffffffff80000ea4:	e8 87 fd ff ff       	call   ffffffff80000c30 <register_interrupt_handler>
ffffffff80000ea9:	bf 01 00 00 00       	mov    $0x1,%edi
ffffffff80000eae:	e8 fd 02 00 00       	call   ffffffff800011b0 <pic_unmask_irq>
ffffffff80000eb3:	31 c0                	xor    %eax,%eax
ffffffff80000eb5:	48 83 c4 08          	add    $0x8,%rsp
ffffffff80000eb9:	c3                   	ret    
ffffffff80000eba:	66 0f 1f 44 00 00    	nopw   0x0(%rax,%rax,1)

ffffffff80000ec0 <get_keyboard_status>:
ffffffff80000ec0:	f3 0f 1e fa          	endbr64 
ffffffff80000ec4:	e4 64                	in     $0x64,%al
ffffffff80000ec6:	c3                   	ret    
ffffffff80000ec7:	66 0f 1f 84 00 00 00 	nopw   0x0(%rax,%rax,1)
ffffffff80000ece:	00 00 

ffffffff80000ed0 <get_keyboard_byte>:
ffffffff80000ed0:	f3 0f 1e fa          	endbr64 
ffffffff80000ed4:	0f 1f 40 00          	nopl   0x0(%rax)
ffffffff80000ed8:	e4 64                	in     $0x64,%al
ffffffff80000eda:	a8 01                	test   $0x1,%al
ffffffff80000edc:	74 fa                	je     ffffffff80000ed8 <get_keyboard_byte+0x8>
ffffffff80000ede:	e4 60                	in     $0x60,%al
ffffffff80000ee0:	c3                   	ret    
ffffffff80000ee1:	66 66 2e 0f 1f 84 00 	data16 cs nopw 0x0(%rax,%rax,1)
ffffffff80000ee8:	00 00 00 00 
ffffffff80000eec:	0f 1f 40 00          	nopl   0x0(%rax)

ffffffff80000ef0 <send_keyboard_byte>:
ffffffff80000ef0:	f3 0f 1e fa          	endbr64 
ffffffff80000ef4:	0f 1f 40 00          	nopl   0x0(%rax)
ffffffff80000ef8:	e4 64                	in     $0x64,%al
ffffffff80000efa:	a8 02                	test   $0x2,%al
ffffffff80000efc:	75 fa                	jne    ffffffff80000ef8 <send_keyboard_byte+0x8>
ffffffff80000efe:	89 f8                	mov    %edi,%eax
ffffffff80000f00:	e6 60                	out    %al,$0x60
ffffffff80000f02:	31 c0                	xor    %eax,%eax
ffffffff80000f04:	c3                   	ret    
ffffffff80000f05:	66 66 2e 0f 1f 84 00 	data16 cs nopw 0x0(%rax,%rax,1)
ffffffff80000f0c:	00 00 00 00 

ffffffff80000f10 <send_keyboard_command>:
ffffffff80000f10:	f3 0f 1e fa          	endbr64 
ffffffff80000f14:	e4 64                	in     $0x64,%al
ffffffff80000f16:	a8 02                	test   $0x2,%al
ffffffff80000f18:	75 49                	jne    ffffffff80000f63 <send_keyboard_command+0x53>
ffffffff80000f1a:	89 f8                	mov    %edi,%eax
ffffffff80000f1c:	e6 64                	out    %al,$0x64
ffffffff80000f1e:	40 84 f6             	test   %sil,%sil
ffffffff80000f21:	74 3d                	je     ffffffff80000f60 <send_keyboard_command+0x50>
ffffffff80000f23:	0f 1f 44 00 00       	nopl   0x0(%rax,%rax,1)
ffffffff80000f28:	e4 64                	in     $0x64,%al
ffffffff80000f2a:	a8 01                	test   $0x1,%al
ffffffff80000f2c:	74 fa                	je     ffffffff80000f28 <send_keyboard_command+0x18>
ffffffff80000f2e:	66 90                	xchg   %ax,%ax
ffffffff80000f30:	e4 64                	in     $0x64,%al
ffffffff80000f32:	a8 01                	test   $0x1,%al
ffffffff80000f34:	74 fa                	je     ffffffff80000f30 <send_keyboard_command+0x20>
ffffffff80000f36:	e4 60                	in     $0x60,%al
ffffffff80000f38:	3c fa                	cmp    $0xfa,%al
ffffffff80000f3a:	74 24                	je     ffffffff80000f60 <send_keyboard_command+0x50>
ffffffff80000f3c:	0f 1f 40 00          	nopl   0x0(%rax)
ffffffff80000f40:	e4 64                	in     $0x64,%al
ffffffff80000f42:	a8 01                	test   $0x1,%al
ffffffff80000f44:	74 fa                	je     ffffffff80000f40 <send_keyboard_command+0x30>
ffffffff80000f46:	e4 60                	in     $0x60,%al
ffffffff80000f48:	3c fe                	cmp    $0xfe,%al
ffffffff80000f4a:	75 17                	jne    ffffffff80000f63 <send_keyboard_command+0x53>
ffffffff80000f4c:	40 0f b6 ff          	movzbl %dil,%edi
ffffffff80000f50:	be 01 00 00 00       	mov    $0x1,%esi
ffffffff80000f55:	eb b9                	jmp    ffffffff80000f10 <send_keyboard_command>
ffffffff80000f57:	66 0f 1f 84 00 00 00 	nopw   0x0(%rax,%rax,1)
ffffffff80000f5e:	00 00 
ffffffff80000f60:	31 c0                	xor    %eax,%eax
ffffffff80000f62:	c3                   	ret    
ffffffff80000f63:	b8 ff ff ff ff       	mov    $0xffffffff,%eax
ffffffff80000f68:	c3                   	ret    
ffffffff80000f69:	0f 1f 80 00 00 00 00 	nopl   0x0(%rax)

ffffffff80000f70 <irq_keyboard_handler>:
ffffffff80000f70:	f3 0f 1e fa          	endbr64 
ffffffff80000f74:	48 83 ec 28          	sub    $0x28,%rsp
ffffffff80000f78:	0f 1f 84 00 00 00 00 	nopl   0x0(%rax,%rax,1)
ffffffff80000f7f:	00 
ffffffff80000f80:	e4 64                	in     $0x64,%al
ffffffff80000f82:	a8 01                	test   $0x1,%al
ffffffff80000f84:	74 fa                	je     ffffffff80000f80 <irq_keyboard_handler+0x10>
ffffffff80000f86:	e4 60                	in     $0x60,%al
ffffffff80000f88:	89 c2                	mov    %eax,%edx
ffffffff80000f8a:	0f b6 f0             	movzbl %al,%esi
ffffffff80000f8d:	83 e2 7f             	and    $0x7f,%edx
ffffffff80000f90:	0f b6 d2             	movzbl %dl,%edx
ffffffff80000f93:	a8 80                	test   $0x80,%al
ffffffff80000f95:	0f 85 85 00 00 00    	jne    ffffffff80001020 <irq_keyboard_handler+0xb0>
ffffffff80000f9b:	0f b6 8a 78 29 00 80 	movzbl -0x7fffd688(%rdx),%ecx
ffffffff80000fa2:	80 f9 84             	cmp    $0x84,%cl
ffffffff80000fa5:	0f 84 a5 00 00 00    	je     ffffffff80001050 <irq_keyboard_handler+0xe0>
ffffffff80000fab:	80 f9 83             	cmp    $0x83,%cl
ffffffff80000fae:	0f 84 d4 00 00 00    	je     ffffffff80001088 <irq_keyboard_handler+0x118>
ffffffff80000fb4:	80 f9 85             	cmp    $0x85,%cl
ffffffff80000fb7:	74 42                	je     ffffffff80000ffb <irq_keyboard_handler+0x8b>
ffffffff80000fb9:	80 f9 80             	cmp    $0x80,%cl
ffffffff80000fbc:	0f 84 11 01 00 00    	je     ffffffff800010d3 <irq_keyboard_handler+0x163>
ffffffff80000fc2:	80 f9 82             	cmp    $0x82,%cl
ffffffff80000fc5:	0f 84 22 01 00 00    	je     ffffffff800010ed <irq_keyboard_handler+0x17d>
ffffffff80000fcb:	80 3d 96 88 01 00 e0 	cmpb   $0xe0,0x18896(%rip)        # ffffffff80019868 <prev_scan>
ffffffff80000fd2:	0f 84 c5 00 00 00    	je     ffffffff8000109d <irq_keyboard_handler+0x12d>
ffffffff80000fd8:	80 3d 8a 88 01 00 00 	cmpb   $0x0,0x1888a(%rip)        # ffffffff80019869 <ctrl_pressed>
ffffffff80000fdf:	74 78                	je     ffffffff80001059 <irq_keyboard_handler+0xe9>
ffffffff80000fe1:	80 f9 63             	cmp    $0x63,%cl
ffffffff80000fe4:	75 73                	jne    ffffffff80001059 <irq_keyboard_handler+0xe9>
ffffffff80000fe6:	48 c7 c7 fa 29 00 80 	mov    $0xffffffff800029fa,%rdi
ffffffff80000fed:	88 44 24 0f          	mov    %al,0xf(%rsp)
ffffffff80000ff1:	e8 aa f0 ff ff       	call   ffffffff800000a0 <print>
ffffffff80000ff6:	0f b6 44 24 0f       	movzbl 0xf(%rsp),%eax
ffffffff80000ffb:	bf 80 00 00 00       	mov    $0x80,%edi
ffffffff80001000:	31 f6                	xor    %esi,%esi
ffffffff80001002:	88 05 60 88 01 00    	mov    %al,0x18860(%rip)        # ffffffff80019868 <prev_scan>
ffffffff80001008:	e8 03 ff ff ff       	call   ffffffff80000f10 <send_keyboard_command>
ffffffff8000100d:	bf 01 00 00 00       	mov    $0x1,%edi
ffffffff80001012:	48 83 c4 28          	add    $0x28,%rsp
ffffffff80001016:	e9 f5 01 00 00       	jmp    ffffffff80001210 <pic_send_eoi>
ffffffff8000101b:	0f 1f 44 00 00       	nopl   0x0(%rax,%rax,1)
ffffffff80001020:	0f b6 92 78 29 00 80 	movzbl -0x7fffd688(%rdx),%edx
ffffffff80001027:	80 fa 84             	cmp    $0x84,%dl
ffffffff8000102a:	74 14                	je     ffffffff80001040 <irq_keyboard_handler+0xd0>
ffffffff8000102c:	80 fa 83             	cmp    $0x83,%dl
ffffffff8000102f:	75 ca                	jne    ffffffff80000ffb <irq_keyboard_handler+0x8b>
ffffffff80001031:	c6 05 31 88 01 00 00 	movb   $0x0,0x18831(%rip)        # ffffffff80019869 <ctrl_pressed>
ffffffff80001038:	eb c1                	jmp    ffffffff80000ffb <irq_keyboard_handler+0x8b>
ffffffff8000103a:	66 0f 1f 44 00 00    	nopw   0x0(%rax,%rax,1)
ffffffff80001040:	c6 05 23 88 01 00 00 	movb   $0x0,0x18823(%rip)        # ffffffff8001986a <shift_pressed>
ffffffff80001047:	eb b2                	jmp    ffffffff80000ffb <irq_keyboard_handler+0x8b>
ffffffff80001049:	0f 1f 80 00 00 00 00 	nopl   0x0(%rax)
ffffffff80001050:	c6 05 13 88 01 00 01 	movb   $0x1,0x18813(%rip)        # ffffffff8001986a <shift_pressed>
ffffffff80001057:	eb a2                	jmp    ffffffff80000ffb <irq_keyboard_handler+0x8b>
ffffffff80001059:	80 3d 0a 88 01 00 00 	cmpb   $0x0,0x1880a(%rip)        # ffffffff8001986a <shift_pressed>
ffffffff80001060:	75 32                	jne    ffffffff80001094 <irq_keyboard_handler+0x124>
ffffffff80001062:	48 8d 7c 24 1e       	lea    0x1e(%rsp),%rdi
ffffffff80001067:	88 44 24 0f          	mov    %al,0xf(%rsp)
ffffffff8000106b:	88 4c 24 1e          	mov    %cl,0x1e(%rsp)
ffffffff8000106f:	c6 44 24 1f 00       	movb   $0x0,0x1f(%rsp)
ffffffff80001074:	e8 27 f0 ff ff       	call   ffffffff800000a0 <print>
ffffffff80001079:	0f b6 44 24 0f       	movzbl 0xf(%rsp),%eax
ffffffff8000107e:	e9 78 ff ff ff       	jmp    ffffffff80000ffb <irq_keyboard_handler+0x8b>
ffffffff80001083:	0f 1f 44 00 00       	nopl   0x0(%rax,%rax,1)
ffffffff80001088:	c6 05 da 87 01 00 01 	movb   $0x1,0x187da(%rip)        # ffffffff80019869 <ctrl_pressed>
ffffffff8000108f:	e9 67 ff ff ff       	jmp    ffffffff80000ffb <irq_keyboard_handler+0x8b>
ffffffff80001094:	0f b6 8a b8 29 00 80 	movzbl -0x7fffd648(%rdx),%ecx
ffffffff8000109b:	eb c5                	jmp    ffffffff80001062 <irq_keyboard_handler+0xf2>
ffffffff8000109d:	83 fe 48             	cmp    $0x48,%esi
ffffffff800010a0:	74 65                	je     ffffffff80001107 <irq_keyboard_handler+0x197>
ffffffff800010a2:	83 fe 4b             	cmp    $0x4b,%esi
ffffffff800010a5:	74 7a                	je     ffffffff80001121 <irq_keyboard_handler+0x1b1>
ffffffff800010a7:	83 fe 4d             	cmp    $0x4d,%esi
ffffffff800010aa:	0f 84 8b 00 00 00    	je     ffffffff8000113b <irq_keyboard_handler+0x1cb>
ffffffff800010b0:	83 fe 50             	cmp    $0x50,%esi
ffffffff800010b3:	0f 85 42 ff ff ff    	jne    ffffffff80000ffb <irq_keyboard_handler+0x8b>
ffffffff800010b9:	48 c7 c7 11 2a 00 80 	mov    $0xffffffff80002a11,%rdi
ffffffff800010c0:	88 44 24 0f          	mov    %al,0xf(%rsp)
ffffffff800010c4:	e8 d7 ef ff ff       	call   ffffffff800000a0 <print>
ffffffff800010c9:	0f b6 44 24 0f       	movzbl 0xf(%rsp),%eax
ffffffff800010ce:	e9 28 ff ff ff       	jmp    ffffffff80000ffb <irq_keyboard_handler+0x8b>
ffffffff800010d3:	48 c7 c7 f3 29 00 80 	mov    $0xffffffff800029f3,%rdi
ffffffff800010da:	88 44 24 0f          	mov    %al,0xf(%rsp)
ffffffff800010de:	e8 bd ef ff ff       	call   ffffffff800000a0 <print>
ffffffff800010e3:	0f b6 44 24 0f       	movzbl 0xf(%rsp),%eax
ffffffff800010e8:	e9 0e ff ff ff       	jmp    ffffffff80000ffb <irq_keyboard_handler+0x8b>
ffffffff800010ed:	48 c7 c7 f7 29 00 80 	mov    $0xffffffff800029f7,%rdi
ffffffff800010f4:	88 44 24 0f          	mov    %al,0xf(%rsp)
ffffffff800010f8:	e8 a3 ef ff ff       	call   ffffffff800000a0 <print>
ffffffff800010fd:	0f b6 44 24 0f       	movzbl 0xf(%rsp),%eax
ffffffff80001102:	e9 f4 fe ff ff       	jmp    ffffffff80000ffb <irq_keyboard_handler+0x8b>
ffffffff80001107:	48 c7 c7 02 2a 00 80 	mov    $0xffffffff80002a02,%rdi
ffffffff8000110e:	88 44 24 0f          	mov    %al,0xf(%rsp)
ffffffff80001112:	e8 89 ef ff ff       	call   ffffffff800000a0 <print>
ffffffff80001117:	0f b6 44 24 0f       	movzbl 0xf(%rsp),%eax
ffffffff8000111c:	e9 da fe ff ff       	jmp    ffffffff80000ffb <irq_keyboard_handler+0x8b>
ffffffff80001121:	48 c7 c7 07 2a 00 80 	mov    $0xffffffff80002a07,%rdi
ffffffff80001128:	88 44 24 0f          	mov    %al,0xf(%rsp)
ffffffff8000112c:	e8 6f ef ff ff       	call   ffffffff800000a0 <print>
ffffffff80001131:	0f b6 44 24 0f       	movzbl 0xf(%rsp),%eax
ffffffff80001136:	e9 c0 fe ff ff       	jmp    ffffffff80000ffb <irq_keyboard_handler+0x8b>
ffffffff8000113b:	48 c7 c7 0c 2a 00 80 	mov    $0xffffffff80002a0c,%rdi
ffffffff80001142:	88 44 24 0f          	mov    %al,0xf(%rsp)
ffffffff80001146:	e8 55 ef ff ff       	call   ffffffff800000a0 <print>
ffffffff8000114b:	0f b6 44 24 0f       	movzbl 0xf(%rsp),%eax
ffffffff80001150:	e9 a6 fe ff ff       	jmp    ffffffff80000ffb <irq_keyboard_handler+0x8b>
ffffffff80001155:	66 66 2e 0f 1f 84 00 	data16 cs nopw 0x0(%rax,%rax,1)
ffffffff8000115c:	00 00 00 00 

ffffffff80001160 <send_end_of_transmission>:
ffffffff80001160:	f3 0f 1e fa          	endbr64 
ffffffff80001164:	31 f6                	xor    %esi,%esi
ffffffff80001166:	bf 80 00 00 00       	mov    $0x80,%edi
ffffffff8000116b:	e9 a0 fd ff ff       	jmp    ffffffff80000f10 <send_keyboard_command>

ffffffff80001170 <is_letter>:
ffffffff80001170:	f3 0f 1e fa          	endbr64 
ffffffff80001174:	83 ef 61             	sub    $0x61,%edi
ffffffff80001177:	40 80 ff 19          	cmp    $0x19,%dil
ffffffff8000117b:	0f 96 c0             	setbe  %al
ffffffff8000117e:	c3                   	ret    
ffffffff8000117f:	90                   	nop

ffffffff80001180 <pic_mask_irq>:
ffffffff80001180:	f3 0f 1e fa          	endbr64 
ffffffff80001184:	89 f9                	mov    %edi,%ecx
ffffffff80001186:	ba 21 00 00 00       	mov    $0x21,%edx
ffffffff8000118b:	40 80 ff 07          	cmp    $0x7,%dil
ffffffff8000118f:	76 08                	jbe    ffffffff80001199 <pic_mask_irq+0x19>
ffffffff80001191:	8d 4f f8             	lea    -0x8(%rdi),%ecx
ffffffff80001194:	ba a1 00 00 00       	mov    $0xa1,%edx
ffffffff80001199:	ec                   	in     (%dx),%al
ffffffff8000119a:	be 01 00 00 00       	mov    $0x1,%esi
ffffffff8000119f:	d3 e6                	shl    %cl,%esi
ffffffff800011a1:	09 f0                	or     %esi,%eax
ffffffff800011a3:	ee                   	out    %al,(%dx)
ffffffff800011a4:	c3                   	ret    
ffffffff800011a5:	66 66 2e 0f 1f 84 00 	data16 cs nopw 0x0(%rax,%rax,1)
ffffffff800011ac:	00 00 00 00 

ffffffff800011b0 <pic_unmask_irq>:
ffffffff800011b0:	f3 0f 1e fa          	endbr64 
ffffffff800011b4:	89 f9                	mov    %edi,%ecx
ffffffff800011b6:	ba 21 00 00 00       	mov    $0x21,%edx
ffffffff800011bb:	40 80 ff 07          	cmp    $0x7,%dil
ffffffff800011bf:	76 08                	jbe    ffffffff800011c9 <pic_unmask_irq+0x19>
ffffffff800011c1:	8d 4f f8             	lea    -0x8(%rdi),%ecx
ffffffff800011c4:	ba a1 00 00 00       	mov    $0xa1,%edx
ffffffff800011c9:	ec                   	in     (%dx),%al
ffffffff800011ca:	0f b3 c8             	btr    %ecx,%eax
ffffffff800011cd:	ee                   	out    %al,(%dx)
ffffffff800011ce:	c3                   	ret    
ffffffff800011cf:	90                   	nop

ffffffff800011d0 <pic_remap_offsets>:
ffffffff800011d0:	f3 0f 1e fa          	endbr64 
ffffffff800011d4:	e4 21                	in     $0x21,%al
ffffffff800011d6:	89 c1                	mov    %eax,%ecx
ffffffff800011d8:	e4 a1                	in     $0xa1,%al
ffffffff800011da:	89 c2                	mov    %eax,%edx
ffffffff800011dc:	b8 11 00 00 00       	mov    $0x11,%eax
ffffffff800011e1:	e6 20                	out    %al,$0x20
ffffffff800011e3:	e6 a0                	out    %al,$0xa0
ffffffff800011e5:	89 f8                	mov    %edi,%eax
ffffffff800011e7:	e6 21                	out    %al,$0x21
ffffffff800011e9:	8d 47 08             	lea    0x8(%rdi),%eax
ffffffff800011ec:	e6 a1                	out    %al,$0xa1
ffffffff800011ee:	b8 04 00 00 00       	mov    $0x4,%eax
ffffffff800011f3:	e6 21                	out    %al,$0x21
ffffffff800011f5:	b8 02 00 00 00       	mov    $0x2,%eax
ffffffff800011fa:	e6 a1                	out    %al,$0xa1
ffffffff800011fc:	b8 01 00 00 00       	mov    $0x1,%eax
ffffffff80001201:	e6 21                	out    %al,$0x21
ffffffff80001203:	e6 a1                	out    %al,$0xa1
ffffffff80001205:	89 c8                	mov    %ecx,%eax
ffffffff80001207:	e6 21                	out    %al,$0x21
ffffffff80001209:	89 d0                	mov    %edx,%eax
ffffffff8000120b:	e6 a1                	out    %al,$0xa1
ffffffff8000120d:	c3                   	ret    
ffffffff8000120e:	66 90                	xchg   %ax,%ax

ffffffff80001210 <pic_send_eoi>:
ffffffff80001210:	f3 0f 1e fa          	endbr64 
ffffffff80001214:	40 80 ff 07          	cmp    $0x7,%dil
ffffffff80001218:	76 07                	jbe    ffffffff80001221 <pic_send_eoi+0x11>
ffffffff8000121a:	b8 20 00 00 00       	mov    $0x20,%eax
ffffffff8000121f:	e6 a0                	out    %al,$0xa0
ffffffff80001221:	b8 20 00 00 00       	mov    $0x20,%eax
ffffffff80001226:	e6 20                	out    %al,$0x20
ffffffff80001228:	c3                   	ret    
ffffffff80001229:	0f 1f 80 00 00 00 00 	nopl   0x0(%rax)

ffffffff80001230 <pic_disable>:
ffffffff80001230:	f3 0f 1e fa          	endbr64 
ffffffff80001234:	e4 21                	in     $0x21,%al
ffffffff80001236:	89 c1                	mov    %eax,%ecx
ffffffff80001238:	e4 a1                	in     $0xa1,%al
ffffffff8000123a:	89 c2                	mov    %eax,%edx
ffffffff8000123c:	b8 11 00 00 00       	mov    $0x11,%eax
ffffffff80001241:	e6 20                	out    %al,$0x20
ffffffff80001243:	e6 a0                	out    %al,$0xa0
ffffffff80001245:	b8 20 00 00 00       	mov    $0x20,%eax
ffffffff8000124a:	e6 21                	out    %al,$0x21
ffffffff8000124c:	b8 28 00 00 00       	mov    $0x28,%eax
ffffffff80001251:	e6 a1                	out    %al,$0xa1
ffffffff80001253:	b8 04 00 00 00       	mov    $0x4,%eax
ffffffff80001258:	e6 21                	out    %al,$0x21
ffffffff8000125a:	b8 02 00 00 00       	mov    $0x2,%eax
ffffffff8000125f:	e6 a1                	out    %al,$0xa1
ffffffff80001261:	b8 01 00 00 00       	mov    $0x1,%eax
ffffffff80001266:	e6 21                	out    %al,$0x21
ffffffff80001268:	e6 a1                	out    %al,$0xa1
ffffffff8000126a:	89 c8                	mov    %ecx,%eax
ffffffff8000126c:	e6 21                	out    %al,$0x21
ffffffff8000126e:	89 d0                	mov    %edx,%eax
ffffffff80001270:	e6 a1                	out    %al,$0xa1
ffffffff80001272:	31 f6                	xor    %esi,%esi
ffffffff80001274:	ba 21 00 00 00       	mov    $0x21,%edx
ffffffff80001279:	31 c9                	xor    %ecx,%ecx
ffffffff8000127b:	bf 01 00 00 00       	mov    $0x1,%edi
ffffffff80001280:	ec                   	in     (%dx),%al
ffffffff80001281:	41 89 f8             	mov    %edi,%r8d
ffffffff80001284:	41 d3 e0             	shl    %cl,%r8d
ffffffff80001287:	44 09 c0             	or     %r8d,%eax
ffffffff8000128a:	ee                   	out    %al,(%dx)
ffffffff8000128b:	8d 46 01             	lea    0x1(%rsi),%eax
ffffffff8000128e:	40 80 fe 0f          	cmp    $0xf,%sil
ffffffff80001292:	74 24                	je     ffffffff800012b8 <pic_disable+0x88>
ffffffff80001294:	3c 07                	cmp    $0x7,%al
ffffffff80001296:	76 10                	jbe    ffffffff800012a8 <pic_disable+0x78>
ffffffff80001298:	8d 4e f9             	lea    -0x7(%rsi),%ecx
ffffffff8000129b:	ba a1 00 00 00       	mov    $0xa1,%edx
ffffffff800012a0:	89 c6                	mov    %eax,%esi
ffffffff800012a2:	eb dc                	jmp    ffffffff80001280 <pic_disable+0x50>
ffffffff800012a4:	0f 1f 40 00          	nopl   0x0(%rax)
ffffffff800012a8:	89 c1                	mov    %eax,%ecx
ffffffff800012aa:	ba 21 00 00 00       	mov    $0x21,%edx
ffffffff800012af:	89 c6                	mov    %eax,%esi
ffffffff800012b1:	eb cd                	jmp    ffffffff80001280 <pic_disable+0x50>
ffffffff800012b3:	0f 1f 44 00 00       	nopl   0x0(%rax,%rax,1)
ffffffff800012b8:	c3                   	ret    
ffffffff800012b9:	0f 1f 80 00 00 00 00 	nopl   0x0(%rax)

ffffffff800012c0 <strcmp>:
ffffffff800012c0:	f3 0f 1e fa          	endbr64 
ffffffff800012c4:	0f b6 17             	movzbl (%rdi),%edx
ffffffff800012c7:	84 d2                	test   %dl,%dl
ffffffff800012c9:	74 25                	je     ffffffff800012f0 <strcmp+0x30>
ffffffff800012cb:	31 c0                	xor    %eax,%eax
ffffffff800012cd:	eb 0d                	jmp    ffffffff800012dc <strcmp+0x1c>
ffffffff800012cf:	90                   	nop
ffffffff800012d0:	48 83 c0 01          	add    $0x1,%rax
ffffffff800012d4:	0f b6 14 07          	movzbl (%rdi,%rax,1),%edx
ffffffff800012d8:	84 d2                	test   %dl,%dl
ffffffff800012da:	74 14                	je     ffffffff800012f0 <strcmp+0x30>
ffffffff800012dc:	0f be 0c 06          	movsbl (%rsi,%rax,1),%ecx
ffffffff800012e0:	38 d1                	cmp    %dl,%cl
ffffffff800012e2:	74 ec                	je     ffffffff800012d0 <strcmp+0x10>
ffffffff800012e4:	0f be c2             	movsbl %dl,%eax
ffffffff800012e7:	29 c8                	sub    %ecx,%eax
ffffffff800012e9:	c3                   	ret    
ffffffff800012ea:	66 0f 1f 44 00 00    	nopw   0x0(%rax,%rax,1)
ffffffff800012f0:	31 c0                	xor    %eax,%eax
ffffffff800012f2:	c3                   	ret    
ffffffff800012f3:	66 2e 0f 1f 84 00 00 	cs nopw 0x0(%rax,%rax,1)
ffffffff800012fa:	00 00 00 
ffffffff800012fd:	0f 1f 00             	nopl   (%rax)

ffffffff80001300 <strncmp>:
ffffffff80001300:	f3 0f 1e fa          	endbr64 
ffffffff80001304:	0f b6 0f             	movzbl (%rdi),%ecx
ffffffff80001307:	48 85 d2             	test   %rdx,%rdx
ffffffff8000130a:	74 34                	je     ffffffff80001340 <strncmp+0x40>
ffffffff8000130c:	84 c9                	test   %cl,%cl
ffffffff8000130e:	74 30                	je     ffffffff80001340 <strncmp+0x40>
ffffffff80001310:	31 c0                	xor    %eax,%eax
ffffffff80001312:	eb 15                	jmp    ffffffff80001329 <strncmp+0x29>
ffffffff80001314:	0f 1f 40 00          	nopl   0x0(%rax)
ffffffff80001318:	48 83 c0 01          	add    $0x1,%rax
ffffffff8000131c:	0f b6 0c 07          	movzbl (%rdi,%rax,1),%ecx
ffffffff80001320:	48 39 c2             	cmp    %rax,%rdx
ffffffff80001323:	76 1b                	jbe    ffffffff80001340 <strncmp+0x40>
ffffffff80001325:	84 c9                	test   %cl,%cl
ffffffff80001327:	74 17                	je     ffffffff80001340 <strncmp+0x40>
ffffffff80001329:	44 0f be 04 06       	movsbl (%rsi,%rax,1),%r8d
ffffffff8000132e:	41 38 c8             	cmp    %cl,%r8b
ffffffff80001331:	74 e5                	je     ffffffff80001318 <strncmp+0x18>
ffffffff80001333:	0f be c1             	movsbl %cl,%eax
ffffffff80001336:	44 29 c0             	sub    %r8d,%eax
ffffffff80001339:	c3                   	ret    
ffffffff8000133a:	66 0f 1f 44 00 00    	nopw   0x0(%rax,%rax,1)
ffffffff80001340:	31 c0                	xor    %eax,%eax
ffffffff80001342:	c3                   	ret    
ffffffff80001343:	66 2e 0f 1f 84 00 00 	cs nopw 0x0(%rax,%rax,1)
ffffffff8000134a:	00 00 00 
ffffffff8000134d:	0f 1f 00             	nopl   (%rax)

ffffffff80001350 <memcmp>:
ffffffff80001350:	f3 0f 1e fa          	endbr64 
ffffffff80001354:	48 85 d2             	test   %rdx,%rdx
ffffffff80001357:	74 27                	je     ffffffff80001380 <memcmp+0x30>
ffffffff80001359:	31 c0                	xor    %eax,%eax
ffffffff8000135b:	eb 0c                	jmp    ffffffff80001369 <memcmp+0x19>
ffffffff8000135d:	0f 1f 00             	nopl   (%rax)
ffffffff80001360:	48 83 c0 01          	add    $0x1,%rax
ffffffff80001364:	48 39 c2             	cmp    %rax,%rdx
ffffffff80001367:	74 17                	je     ffffffff80001380 <memcmp+0x30>
ffffffff80001369:	0f b6 0c 07          	movzbl (%rdi,%rax,1),%ecx
ffffffff8000136d:	44 0f be 04 06       	movsbl (%rsi,%rax,1),%r8d
ffffffff80001372:	44 38 c1             	cmp    %r8b,%cl
ffffffff80001375:	74 e9                	je     ffffffff80001360 <memcmp+0x10>
ffffffff80001377:	0f be c1             	movsbl %cl,%eax
ffffffff8000137a:	44 29 c0             	sub    %r8d,%eax
ffffffff8000137d:	c3                   	ret    
ffffffff8000137e:	66 90                	xchg   %ax,%ax
ffffffff80001380:	31 c0                	xor    %eax,%eax
ffffffff80001382:	c3                   	ret    
ffffffff80001383:	66 2e 0f 1f 84 00 00 	cs nopw 0x0(%rax,%rax,1)
ffffffff8000138a:	00 00 00 
ffffffff8000138d:	0f 1f 00             	nopl   (%rax)

ffffffff80001390 <strlen>:
ffffffff80001390:	f3 0f 1e fa          	endbr64 
ffffffff80001394:	31 c0                	xor    %eax,%eax
ffffffff80001396:	80 3f 00             	cmpb   $0x0,(%rdi)
ffffffff80001399:	74 15                	je     ffffffff800013b0 <strlen+0x20>
ffffffff8000139b:	0f 1f 44 00 00       	nopl   0x0(%rax,%rax,1)
ffffffff800013a0:	48 83 c0 01          	add    $0x1,%rax
ffffffff800013a4:	80 3c 07 00          	cmpb   $0x0,(%rdi,%rax,1)
ffffffff800013a8:	75 f6                	jne    ffffffff800013a0 <strlen+0x10>
ffffffff800013aa:	c3                   	ret    
ffffffff800013ab:	0f 1f 44 00 00       	nopl   0x0(%rax,%rax,1)
ffffffff800013b0:	c3                   	ret    
ffffffff800013b1:	66 2e 0f 1f 84 00 00 	cs nopw 0x0(%rax,%rax,1)
ffffffff800013b8:	00 00 00 
ffffffff800013bb:	0f 1f 44 00 00       	nopl   0x0(%rax,%rax,1)

ffffffff800013c0 <setGDT>:
ffffffff800013c0:	fa                   	cli    
ffffffff800013c1:	48 89 f8             	mov    %rdi,%rax
ffffffff800013c4:	0f 01 10             	lgdt   (%rax)
ffffffff800013c7:	c3                   	ret    

ffffffff800013c8 <reloadSegments>:
ffffffff800013c8:	6a 28                	push   $0x28
ffffffff800013ca:	48 8d 05 03 00 00 00 	lea    0x3(%rip),%rax        # ffffffff800013d4 <reloadSegments.reload_CS>
ffffffff800013d1:	50                   	push   %rax
ffffffff800013d2:	48 cb                	lretq  

ffffffff800013d4 <reloadSegments.reload_CS>:
ffffffff800013d4:	66 b8 30 00          	mov    $0x30,%ax
ffffffff800013d8:	8e d8                	mov    %eax,%ds
ffffffff800013da:	8e c0                	mov    %eax,%es
ffffffff800013dc:	8e e0                	mov    %eax,%fs
ffffffff800013de:	8e e8                	mov    %eax,%gs
ffffffff800013e0:	8e d0                	mov    %eax,%ss
ffffffff800013e2:	fb                   	sti    
ffffffff800013e3:	c3                   	ret    
ffffffff800013e4:	66 2e 0f 1f 84 00 00 	cs nopw 0x0(%rax,%rax,1)
ffffffff800013eb:	00 00 00 
ffffffff800013ee:	66 90                	xchg   %ax,%ax

ffffffff800013f0 <gdt_reload>:
ffffffff800013f0:	0f 01 17             	lgdt   (%rdi)
ffffffff800013f3:	6a 28                	push   $0x28
ffffffff800013f5:	48 8d 05 03 00 00 00 	lea    0x3(%rip),%rax        # ffffffff800013ff <gdt_reload.reload_CS>
ffffffff800013fc:	50                   	push   %rax
ffffffff800013fd:	48 cb                	lretq  

ffffffff800013ff <gdt_reload.reload_CS>:
ffffffff800013ff:	66 b8 30 00          	mov    $0x30,%ax
ffffffff80001403:	8e d8                	mov    %eax,%ds
ffffffff80001405:	8e c0                	mov    %eax,%es
ffffffff80001407:	8e e0                	mov    %eax,%fs
ffffffff80001409:	8e e8                	mov    %eax,%gs
ffffffff8000140b:	8e d0                	mov    %eax,%ss
ffffffff8000140d:	c3                   	ret    
ffffffff8000140e:	66 90                	xchg   %ax,%ax

ffffffff80001410 <isr_common_stub>:
ffffffff80001410:	55                   	push   %rbp
ffffffff80001411:	48 89 e5             	mov    %rsp,%rbp
ffffffff80001414:	50                   	push   %rax
ffffffff80001415:	53                   	push   %rbx
ffffffff80001416:	51                   	push   %rcx
ffffffff80001417:	52                   	push   %rdx
ffffffff80001418:	56                   	push   %rsi
ffffffff80001419:	57                   	push   %rdi
ffffffff8000141a:	0f 20 c0             	mov    %cr0,%rax
ffffffff8000141d:	50                   	push   %rax
ffffffff8000141e:	0f 20 d0             	mov    %cr2,%rax
ffffffff80001421:	50                   	push   %rax
ffffffff80001422:	0f 20 d8             	mov    %cr3,%rax
ffffffff80001425:	50                   	push   %rax
ffffffff80001426:	0f 20 e0             	mov    %cr4,%rax
ffffffff80001429:	50                   	push   %rax
ffffffff8000142a:	66 8c d8             	mov    %ds,%ax
ffffffff8000142d:	50                   	push   %rax
ffffffff8000142e:	6a 00                	push   $0x0
ffffffff80001430:	66 b8 30 00          	mov    $0x30,%ax
ffffffff80001434:	8e d8                	mov    %eax,%ds
ffffffff80001436:	8e c0                	mov    %eax,%es
ffffffff80001438:	8e d0                	mov    %eax,%ss
ffffffff8000143a:	48 8d 7c 24 10       	lea    0x10(%rsp),%rdi
ffffffff8000143f:	e8 4c f7 ff ff       	call   ffffffff80000b90 <isr_handler>
ffffffff80001444:	58                   	pop    %rax
ffffffff80001445:	58                   	pop    %rax
ffffffff80001446:	8e d8                	mov    %eax,%ds
ffffffff80001448:	8e c0                	mov    %eax,%es
ffffffff8000144a:	58                   	pop    %rax
ffffffff8000144b:	0f 22 e0             	mov    %rax,%cr4
ffffffff8000144e:	58                   	pop    %rax
ffffffff8000144f:	0f 22 d8             	mov    %rax,%cr3
ffffffff80001452:	58                   	pop    %rax
ffffffff80001453:	0f 22 d0             	mov    %rax,%cr2
ffffffff80001456:	58                   	pop    %rax
ffffffff80001457:	0f 22 c0             	mov    %rax,%cr0
ffffffff8000145a:	5f                   	pop    %rdi
ffffffff8000145b:	5e                   	pop    %rsi
ffffffff8000145c:	5a                   	pop    %rdx
ffffffff8000145d:	59                   	pop    %rcx
ffffffff8000145e:	5b                   	pop    %rbx
ffffffff8000145f:	58                   	pop    %rax
ffffffff80001460:	5d                   	pop    %rbp
ffffffff80001461:	48 83 c4 10          	add    $0x10,%rsp
ffffffff80001465:	48 cf                	iretq  

ffffffff80001467 <irq_common_stub>:
ffffffff80001467:	55                   	push   %rbp
ffffffff80001468:	48 89 e5             	mov    %rsp,%rbp
ffffffff8000146b:	50                   	push   %rax
ffffffff8000146c:	53                   	push   %rbx
ffffffff8000146d:	51                   	push   %rcx
ffffffff8000146e:	52                   	push   %rdx
ffffffff8000146f:	56                   	push   %rsi
ffffffff80001470:	57                   	push   %rdi
ffffffff80001471:	0f 20 c0             	mov    %cr0,%rax
ffffffff80001474:	50                   	push   %rax
ffffffff80001475:	0f 20 d0             	mov    %cr2,%rax
ffffffff80001478:	50                   	push   %rax
ffffffff80001479:	0f 20 d8             	mov    %cr3,%rax
ffffffff8000147c:	50                   	push   %rax
ffffffff8000147d:	0f 20 e0             	mov    %cr4,%rax
ffffffff80001480:	50                   	push   %rax
ffffffff80001481:	66 8c d8             	mov    %ds,%ax
ffffffff80001484:	50                   	push   %rax
ffffffff80001485:	6a 00                	push   $0x0
ffffffff80001487:	66 b8 30 00          	mov    $0x30,%ax
ffffffff8000148b:	8e d8                	mov    %eax,%ds
ffffffff8000148d:	8e c0                	mov    %eax,%es
ffffffff8000148f:	8e d0                	mov    %eax,%ss
ffffffff80001491:	48 8d 7c 24 10       	lea    0x10(%rsp),%rdi
ffffffff80001496:	e8 b5 f7 ff ff       	call   ffffffff80000c50 <irq_handler>
ffffffff8000149b:	58                   	pop    %rax
ffffffff8000149c:	58                   	pop    %rax
ffffffff8000149d:	8e d8                	mov    %eax,%ds
ffffffff8000149f:	8e c0                	mov    %eax,%es
ffffffff800014a1:	58                   	pop    %rax
ffffffff800014a2:	0f 22 e0             	mov    %rax,%cr4
ffffffff800014a5:	58                   	pop    %rax
ffffffff800014a6:	0f 22 d8             	mov    %rax,%cr3
ffffffff800014a9:	58                   	pop    %rax
ffffffff800014aa:	0f 22 d0             	mov    %rax,%cr2
ffffffff800014ad:	58                   	pop    %rax
ffffffff800014ae:	0f 22 c0             	mov    %rax,%cr0
ffffffff800014b1:	5f                   	pop    %rdi
ffffffff800014b2:	5e                   	pop    %rsi
ffffffff800014b3:	5a                   	pop    %rdx
ffffffff800014b4:	59                   	pop    %rcx
ffffffff800014b5:	5b                   	pop    %rbx
ffffffff800014b6:	58                   	pop    %rax
ffffffff800014b7:	5d                   	pop    %rbp
ffffffff800014b8:	48 83 c4 10          	add    $0x10,%rsp
ffffffff800014bc:	48 cf                	iretq  

ffffffff800014be <isr0>:
ffffffff800014be:	6a 00                	push   $0x0
ffffffff800014c0:	6a 00                	push   $0x0
ffffffff800014c2:	e9 49 ff ff ff       	jmp    ffffffff80001410 <isr_common_stub>

ffffffff800014c7 <isr1>:
ffffffff800014c7:	6a 00                	push   $0x0
ffffffff800014c9:	6a 01                	push   $0x1
ffffffff800014cb:	e9 40 ff ff ff       	jmp    ffffffff80001410 <isr_common_stub>

ffffffff800014d0 <isr2>:
ffffffff800014d0:	6a 00                	push   $0x0
ffffffff800014d2:	6a 02                	push   $0x2
ffffffff800014d4:	e9 37 ff ff ff       	jmp    ffffffff80001410 <isr_common_stub>

ffffffff800014d9 <isr3>:
ffffffff800014d9:	6a 00                	push   $0x0
ffffffff800014db:	6a 03                	push   $0x3
ffffffff800014dd:	e9 2e ff ff ff       	jmp    ffffffff80001410 <isr_common_stub>

ffffffff800014e2 <isr4>:
ffffffff800014e2:	6a 00                	push   $0x0
ffffffff800014e4:	6a 04                	push   $0x4
ffffffff800014e6:	e9 25 ff ff ff       	jmp    ffffffff80001410 <isr_common_stub>

ffffffff800014eb <isr5>:
ffffffff800014eb:	6a 00                	push   $0x0
ffffffff800014ed:	6a 05                	push   $0x5
ffffffff800014ef:	e9 1c ff ff ff       	jmp    ffffffff80001410 <isr_common_stub>

ffffffff800014f4 <isr6>:
ffffffff800014f4:	6a 00                	push   $0x0
ffffffff800014f6:	6a 06                	push   $0x6
ffffffff800014f8:	e9 13 ff ff ff       	jmp    ffffffff80001410 <isr_common_stub>

ffffffff800014fd <isr7>:
ffffffff800014fd:	6a 00                	push   $0x0
ffffffff800014ff:	6a 07                	push   $0x7
ffffffff80001501:	e9 0a ff ff ff       	jmp    ffffffff80001410 <isr_common_stub>

ffffffff80001506 <isr8>:
ffffffff80001506:	6a 08                	push   $0x8
ffffffff80001508:	e9 03 ff ff ff       	jmp    ffffffff80001410 <isr_common_stub>

ffffffff8000150d <isr9>:
ffffffff8000150d:	6a 00                	push   $0x0
ffffffff8000150f:	6a 09                	push   $0x9
ffffffff80001511:	e9 fa fe ff ff       	jmp    ffffffff80001410 <isr_common_stub>

ffffffff80001516 <isr10>:
ffffffff80001516:	6a 0a                	push   $0xa
ffffffff80001518:	e9 f3 fe ff ff       	jmp    ffffffff80001410 <isr_common_stub>

ffffffff8000151d <isr11>:
ffffffff8000151d:	6a 0b                	push   $0xb
ffffffff8000151f:	e9 ec fe ff ff       	jmp    ffffffff80001410 <isr_common_stub>

ffffffff80001524 <isr12>:
ffffffff80001524:	6a 0c                	push   $0xc
ffffffff80001526:	e9 e5 fe ff ff       	jmp    ffffffff80001410 <isr_common_stub>

ffffffff8000152b <isr13>:
ffffffff8000152b:	6a 0d                	push   $0xd
ffffffff8000152d:	e9 de fe ff ff       	jmp    ffffffff80001410 <isr_common_stub>

ffffffff80001532 <isr14>:
ffffffff80001532:	6a 0e                	push   $0xe
ffffffff80001534:	e9 d7 fe ff ff       	jmp    ffffffff80001410 <isr_common_stub>

ffffffff80001539 <isr15>:
ffffffff80001539:	6a 00                	push   $0x0
ffffffff8000153b:	6a 0f                	push   $0xf
ffffffff8000153d:	e9 ce fe ff ff       	jmp    ffffffff80001410 <isr_common_stub>

ffffffff80001542 <isr16>:
ffffffff80001542:	6a 00                	push   $0x0
ffffffff80001544:	6a 10                	push   $0x10
ffffffff80001546:	e9 c5 fe ff ff       	jmp    ffffffff80001410 <isr_common_stub>

ffffffff8000154b <isr17>:
ffffffff8000154b:	6a 00                	push   $0x0
ffffffff8000154d:	6a 11                	push   $0x11
ffffffff8000154f:	e9 bc fe ff ff       	jmp    ffffffff80001410 <isr_common_stub>

ffffffff80001554 <isr18>:
ffffffff80001554:	6a 00                	push   $0x0
ffffffff80001556:	6a 12                	push   $0x12
ffffffff80001558:	e9 b3 fe ff ff       	jmp    ffffffff80001410 <isr_common_stub>

ffffffff8000155d <isr19>:
ffffffff8000155d:	6a 00                	push   $0x0
ffffffff8000155f:	6a 13                	push   $0x13
ffffffff80001561:	e9 aa fe ff ff       	jmp    ffffffff80001410 <isr_common_stub>

ffffffff80001566 <isr20>:
ffffffff80001566:	6a 00                	push   $0x0
ffffffff80001568:	6a 14                	push   $0x14
ffffffff8000156a:	e9 a1 fe ff ff       	jmp    ffffffff80001410 <isr_common_stub>

ffffffff8000156f <isr21>:
ffffffff8000156f:	6a 00                	push   $0x0
ffffffff80001571:	6a 15                	push   $0x15
ffffffff80001573:	e9 98 fe ff ff       	jmp    ffffffff80001410 <isr_common_stub>

ffffffff80001578 <isr22>:
ffffffff80001578:	6a 00                	push   $0x0
ffffffff8000157a:	6a 16                	push   $0x16
ffffffff8000157c:	e9 8f fe ff ff       	jmp    ffffffff80001410 <isr_common_stub>

ffffffff80001581 <isr23>:
ffffffff80001581:	6a 00                	push   $0x0
ffffffff80001583:	6a 17                	push   $0x17
ffffffff80001585:	e9 86 fe ff ff       	jmp    ffffffff80001410 <isr_common_stub>

ffffffff8000158a <isr24>:
ffffffff8000158a:	6a 00                	push   $0x0
ffffffff8000158c:	6a 18                	push   $0x18
ffffffff8000158e:	e9 7d fe ff ff       	jmp    ffffffff80001410 <isr_common_stub>

ffffffff80001593 <isr25>:
ffffffff80001593:	6a 00                	push   $0x0
ffffffff80001595:	6a 19                	push   $0x19
ffffffff80001597:	e9 74 fe ff ff       	jmp    ffffffff80001410 <isr_common_stub>

ffffffff8000159c <isr26>:
ffffffff8000159c:	6a 00                	push   $0x0
ffffffff8000159e:	6a 1a                	push   $0x1a
ffffffff800015a0:	e9 6b fe ff ff       	jmp    ffffffff80001410 <isr_common_stub>

ffffffff800015a5 <isr27>:
ffffffff800015a5:	6a 00                	push   $0x0
ffffffff800015a7:	6a 1b                	push   $0x1b
ffffffff800015a9:	e9 62 fe ff ff       	jmp    ffffffff80001410 <isr_common_stub>

ffffffff800015ae <isr28>:
ffffffff800015ae:	6a 00                	push   $0x0
ffffffff800015b0:	6a 1c                	push   $0x1c
ffffffff800015b2:	e9 59 fe ff ff       	jmp    ffffffff80001410 <isr_common_stub>

ffffffff800015b7 <isr29>:
ffffffff800015b7:	6a 00                	push   $0x0
ffffffff800015b9:	6a 1d                	push   $0x1d
ffffffff800015bb:	e9 50 fe ff ff       	jmp    ffffffff80001410 <isr_common_stub>

ffffffff800015c0 <isr30>:
ffffffff800015c0:	6a 00                	push   $0x0
ffffffff800015c2:	6a 1e                	push   $0x1e
ffffffff800015c4:	e9 47 fe ff ff       	jmp    ffffffff80001410 <isr_common_stub>

ffffffff800015c9 <isr31>:
ffffffff800015c9:	6a 00                	push   $0x0
ffffffff800015cb:	6a 1f                	push   $0x1f
ffffffff800015cd:	e9 3e fe ff ff       	jmp    ffffffff80001410 <isr_common_stub>

ffffffff800015d2 <irq0>:
ffffffff800015d2:	6a 00                	push   $0x0
ffffffff800015d4:	6a 20                	push   $0x20
ffffffff800015d6:	e9 8c fe ff ff       	jmp    ffffffff80001467 <irq_common_stub>

ffffffff800015db <irq1>:
ffffffff800015db:	6a 01                	push   $0x1
ffffffff800015dd:	6a 21                	push   $0x21
ffffffff800015df:	e9 83 fe ff ff       	jmp    ffffffff80001467 <irq_common_stub>

ffffffff800015e4 <irq2>:
ffffffff800015e4:	6a 02                	push   $0x2
ffffffff800015e6:	6a 22                	push   $0x22
ffffffff800015e8:	e9 7a fe ff ff       	jmp    ffffffff80001467 <irq_common_stub>

ffffffff800015ed <irq3>:
ffffffff800015ed:	6a 03                	push   $0x3
ffffffff800015ef:	6a 23                	push   $0x23
ffffffff800015f1:	e9 71 fe ff ff       	jmp    ffffffff80001467 <irq_common_stub>

ffffffff800015f6 <irq4>:
ffffffff800015f6:	6a 04                	push   $0x4
ffffffff800015f8:	6a 24                	push   $0x24
ffffffff800015fa:	e9 68 fe ff ff       	jmp    ffffffff80001467 <irq_common_stub>

ffffffff800015ff <irq5>:
ffffffff800015ff:	6a 05                	push   $0x5
ffffffff80001601:	6a 25                	push   $0x25
ffffffff80001603:	e9 5f fe ff ff       	jmp    ffffffff80001467 <irq_common_stub>

ffffffff80001608 <irq6>:
ffffffff80001608:	6a 06                	push   $0x6
ffffffff8000160a:	6a 26                	push   $0x26
ffffffff8000160c:	e9 56 fe ff ff       	jmp    ffffffff80001467 <irq_common_stub>

ffffffff80001611 <irq7>:
ffffffff80001611:	6a 07                	push   $0x7
ffffffff80001613:	6a 27                	push   $0x27
ffffffff80001615:	e9 4d fe ff ff       	jmp    ffffffff80001467 <irq_common_stub>

ffffffff8000161a <irq8>:
ffffffff8000161a:	6a 08                	push   $0x8
ffffffff8000161c:	6a 28                	push   $0x28
ffffffff8000161e:	e9 44 fe ff ff       	jmp    ffffffff80001467 <irq_common_stub>

ffffffff80001623 <irq9>:
ffffffff80001623:	6a 09                	push   $0x9
ffffffff80001625:	6a 29                	push   $0x29
ffffffff80001627:	e9 3b fe ff ff       	jmp    ffffffff80001467 <irq_common_stub>

ffffffff8000162c <irq10>:
ffffffff8000162c:	6a 0a                	push   $0xa
ffffffff8000162e:	6a 2a                	push   $0x2a
ffffffff80001630:	e9 32 fe ff ff       	jmp    ffffffff80001467 <irq_common_stub>

ffffffff80001635 <irq11>:
ffffffff80001635:	6a 0b                	push   $0xb
ffffffff80001637:	6a 2b                	push   $0x2b
ffffffff80001639:	e9 29 fe ff ff       	jmp    ffffffff80001467 <irq_common_stub>

ffffffff8000163e <irq12>:
ffffffff8000163e:	6a 0c                	push   $0xc
ffffffff80001640:	6a 2c                	push   $0x2c
ffffffff80001642:	e9 20 fe ff ff       	jmp    ffffffff80001467 <irq_common_stub>

ffffffff80001647 <irq13>:
ffffffff80001647:	6a 0d                	push   $0xd
ffffffff80001649:	6a 2d                	push   $0x2d
ffffffff8000164b:	e9 17 fe ff ff       	jmp    ffffffff80001467 <irq_common_stub>

ffffffff80001650 <irq14>:
ffffffff80001650:	6a 0e                	push   $0xe
ffffffff80001652:	6a 2e                	push   $0x2e
ffffffff80001654:	e9 0e fe ff ff       	jmp    ffffffff80001467 <irq_common_stub>

ffffffff80001659 <irq15>:
ffffffff80001659:	6a 0f                	push   $0xf
ffffffff8000165b:	6a 2f                	push   $0x2f
ffffffff8000165d:	e9 05 fe ff ff       	jmp    ffffffff80001467 <irq_common_stub>
ffffffff80001662:	66 2e 0f 1f 84 00 00 	cs nopw 0x0(%rax,%rax,1)
ffffffff80001669:	00 00 00 
ffffffff8000166c:	0f 1f 40 00          	nopl   0x0(%rax)

ffffffff80001670 <idt_reload>:
ffffffff80001670:	55                   	push   %rbp
ffffffff80001671:	48 89 e5             	mov    %rsp,%rbp
ffffffff80001674:	9c                   	pushf  
ffffffff80001675:	fa                   	cli    
ffffffff80001676:	0f 01 1f             	lidt   (%rdi)
ffffffff80001679:	9d                   	popf   
ffffffff8000167a:	5d                   	pop    %rbp
ffffffff8000167b:	c3                   	ret    
ffffffff8000167c:	0f 1f 40 00          	nopl   0x0(%rax)

ffffffff80001680 <tss_reload>:
ffffffff80001680:	55                   	push   %rbp
ffffffff80001681:	48 89 e5             	mov    %rsp,%rbp
ffffffff80001684:	9c                   	pushf  
ffffffff80001685:	fa                   	cli    
ffffffff80001686:	0f 00 df             	ltr    %di
ffffffff80001689:	9d                   	popf   
ffffffff8000168a:	5d                   	pop    %rbp
ffffffff8000168b:	c3                   	ret    
ffffffff8000168c:	0f 1f 40 00          	nopl   0x0(%rax)

ffffffff80001690 <memset>:
ffffffff80001690:	55                   	push   %rbp
ffffffff80001691:	48 89 e5             	mov    %rsp,%rbp
ffffffff80001694:	9c                   	pushf  
ffffffff80001695:	48 89 ff             	mov    %rdi,%rdi
ffffffff80001698:	48 89 f0             	mov    %rsi,%rax
ffffffff8000169b:	51                   	push   %rcx
ffffffff8000169c:	57                   	push   %rdi
ffffffff8000169d:	48 89 d1             	mov    %rdx,%rcx
ffffffff800016a0:	fc                   	cld    
ffffffff800016a1:	f3 aa                	rep stos %al,%es:(%rdi)
ffffffff800016a3:	58                   	pop    %rax
ffffffff800016a4:	59                   	pop    %rcx
ffffffff800016a5:	9d                   	popf   
ffffffff800016a6:	5d                   	pop    %rbp
ffffffff800016a7:	c3                   	ret    
ffffffff800016a8:	0f 1f 84 00 00 00 00 	nopl   0x0(%rax,%rax,1)
ffffffff800016af:	00 

ffffffff800016b0 <memcpy>:
ffffffff800016b0:	55                   	push   %rbp
ffffffff800016b1:	48 89 e5             	mov    %rsp,%rbp
ffffffff800016b4:	9c                   	pushf  
ffffffff800016b5:	48 89 ff             	mov    %rdi,%rdi
ffffffff800016b8:	48 89 f6             	mov    %rsi,%rsi
ffffffff800016bb:	48 89 f8             	mov    %rdi,%rax
ffffffff800016be:	51                   	push   %rcx
ffffffff800016bf:	48 89 d1             	mov    %rdx,%rcx
ffffffff800016c2:	fc                   	cld    
ffffffff800016c3:	f3 a4                	rep movsb %ds:(%rsi),%es:(%rdi)
ffffffff800016c5:	59                   	pop    %rcx
ffffffff800016c6:	9d                   	popf   
ffffffff800016c7:	5d                   	pop    %rbp
ffffffff800016c8:	c3                   	ret    
